ccopy_reg
_reconstructor
p0
(cbinary_knn
BinaryKNN
p1
c__builtin__
object
p2
Ntp3
Rp4
(dp5
S'_max_key'
p6
I13
sS'_training_set'
p7
(lp8
(dp9
I1
F1.0
sI2
F1.0
sI5
F1.0
sI14
I0
sa(dp10
I1
F1.0
sI2
F2.0
sI3
F1.0
sI5
F1.0
sI6
F1.0
sI14
I0
sa(dp11
I1
F1.0
sI2
F3.0
sI3
F2.0
sI5
F1.0
sI6
F1.0
sI7
F2.0
sI14
I0
sa(dp12
I1
F1.0
sI2
F4.0
sI3
F2.0
sI4
F1.0
sI5
F1.0
sI6
F1.0
sI7
F2.0
sI8
F1.0
sI14
I0
sa(dp13
I1
F1.0
sI2
F5.0
sI3
F2.0
sI4
F2.0
sI5
F1.0
sI6
F1.0
sI7
F2.0
sI8
F1.0
sI9
F1.0
sI14
I0
sa(dp14
I1
F1.0
sI2
F6.0
sI3
F2.0
sI4
F2.0
sI5
F1.0
sI6
F1.0
sI7
F2.0
sI8
F1.0
sI9
F1.0
sI10
F2.0
sI14
I0
sa(dp15
I1
F1.0
sI2
F1.0
sI5
F1.0
sI14
I0
sa(dp16
I1
F1.0
sI2
F2.0
sI4
F1.0
sI5
F1.0
sI6
F2.0
sI14
I0
sa(dp17
I1
F1.0
sI2
F3.0
sI3
F1.0
sI4
F1.0
sI5
F1.0
sI6
F2.0
sI7
F2.0
sI14
I0
sa(dp18
I1
F1.0
sI2
F4.0
sI3
F2.0
sI4
F1.0
sI5
F1.0
sI6
F2.0
sI7
F2.0
sI8
F3.0
sI14
I0
sa(dp19
I1
F1.0
sI2
F5.0
sI3
F2.0
sI4
F2.0
sI5
F1.0
sI6
F2.0
sI7
F2.0
sI8
F3.0
sI9
F1.0
sI14
I0
sa(dp20
I1
F1.0
sI2
F6.0
sI3
F2.0
sI4
F2.0
sI5
F1.0
sI6
F2.0
sI7
F2.0
sI8
F3.0
sI9
F1.0
sI10
F3.0
sI14
I0
sa(dp21
I1
F1.0
sI2
F7.0
sI3
F2.0
sI4
F2.0
sI5
F1.0
sI6
F2.0
sI7
F2.0
sI8
F3.0
sI9
F1.0
sI10
F3.0
sI11
F2.0
sI14
I0
sa(dp22
I1
F1.0
sI2
F1.0
sI5
F1.0
sI14
I0
sa(dp23
I1
F1.0
sI2
F2.0
sI4
F1.0
sI5
F1.0
sI6
F3.0
sI14
I0
sa(dp24
I1
F1.0
sI2
F1.0
sI5
F1.0
sI14
I0
sa(dp25
I1
F1.0
sI2
F2.0
sI3
F1.0
sI5
F1.0
sI6
F2.0
sI14
I0
sa(dp26
I1
F1.0
sI2
F1.0
sI5
F1.0
sI14
I0
sa(dp27
I1
F1.0
sI2
F2.0
sI3
F1.0
sI5
F1.0
sI6
F1.0
sI14
I0
sa(dp28
I1
F1.0
sI2
F3.0
sI3
F2.0
sI5
F1.0
sI6
F1.0
sI7
F1.0
sI14
I0
sa(dp29
I1
F1.0
sI2
F4.0
sI3
F2.0
sI4
F1.0
sI5
F1.0
sI6
F1.0
sI7
F1.0
sI8
F3.0
sI14
I0
sa(dp30
I1
F1.0
sI2
F5.0
sI3
F2.0
sI4
F2.0
sI5
F1.0
sI6
F1.0
sI7
F1.0
sI8
F3.0
sI9
F2.0
sI14
I0
sa(dp31
I1
F1.0
sI2
F6.0
sI3
F2.0
sI4
F3.0
sI5
F1.0
sI6
F1.0
sI7
F1.0
sI8
F3.0
sI9
F2.0
sI10
F1.0
sI14
I0
sa(dp32
I1
F1.0
sI2
F1.0
sI5
F2.0
sI14
I0
sa(dp33
I1
F1.0
sI2
F3.0
sI3
F2.0
sI5
F2.0
sI6
F3.0
sI7
F4.0
sI14
I0
sa(dp34
I1
F2.0
sI2
F1.0
sI5
F2.0
sI14
I0
sa(dp35
I1
F2.0
sI2
F2.0
sI3
F1.0
sI5
F2.0
sI6
F1.0
sI14
I0
sa(dp36
I1
F2.0
sI2
F3.0
sI3
F2.0
sI5
F2.0
sI6
F1.0
sI7
F1.0
sI14
I0
sa(dp37
I1
F2.0
sI2
F4.0
sI3
F2.0
sI5
F2.0
sI6
F1.0
sI7
F1.0
sI8
F3.0
sI14
I0
sa(dp38
I1
F2.0
sI2
F5.0
sI3
F2.0
sI4
F1.0
sI5
F2.0
sI6
F1.0
sI7
F1.0
sI8
F3.0
sI9
F2.0
sI14
I0
sa(dp39
I1
F2.0
sI2
F1.0
sI5
F1.0
sI14
I0
sa(dp40
I1
F2.0
sI2
F2.0
sI4
F1.0
sI5
F1.0
sI6
F1.0
sI14
I0
sa(dp41
I1
F2.0
sI2
F3.0
sI3
F1.0
sI4
F1.0
sI5
F1.0
sI6
F1.0
sI7
F1.0
sI14
I0
sa(dp42
I1
F2.0
sI2
F1.0
sI5
F2.0
sI14
I0
sa(dp43
I1
F2.0
sI2
F2.0
sI4
F1.0
sI5
F2.0
sI6
F1.0
sI14
I0
sa(dp44
I1
F2.0
sI2
F3.0
sI4
F2.0
sI5
F2.0
sI6
F1.0
sI7
F1.0
sI14
I0
sa(dp45
I1
F2.0
sI2
F4.0
sI3
F1.0
sI4
F2.0
sI5
F2.0
sI6
F1.0
sI7
F1.0
sI8
F1.0
sI14
I0
sa(dp46
I1
F2.0
sI2
F5.0
sI3
F1.0
sI4
F3.0
sI5
F2.0
sI6
F1.0
sI7
F1.0
sI8
F1.0
sI9
F2.0
sI14
I0
sa(dp47
I1
F2.0
sI2
F6.0
sI3
F2.0
sI4
F3.0
sI5
F2.0
sI6
F1.0
sI7
F1.0
sI8
F1.0
sI9
F2.0
sI10
F1.0
sI14
I0
sa(dp48
I1
F2.0
sI2
F2.0
sI4
F1.0
sI5
F1.0
sI6
F4.0
sI14
I0
sa(dp49
I1
F2.0
sI2
F3.0
sI3
F1.0
sI4
F1.0
sI5
F1.0
sI6
F4.0
sI7
F1.0
sI14
I0
sa(dp50
I1
F2.0
sI2
F4.0
sI3
F2.0
sI4
F1.0
sI5
F1.0
sI6
F4.0
sI7
F1.0
sI8
F1.0
sI14
I0
sa(dp51
I1
F3.0
sI2
F2.0
sI4
F1.0
sI5
F1.0
sI6
F4.0
sI14
I0
sa(dp52
I1
F3.0
sI2
F3.0
sI4
F2.0
sI5
F1.0
sI6
F4.0
sI7
F1.0
sI14
I0
sa(dp53
I1
F3.0
sI2
F4.0
sI4
F3.0
sI5
F1.0
sI6
F4.0
sI7
F1.0
sI8
F1.0
sI14
I0
sa(dp54
I1
F3.0
sI2
F1.0
sI5
F1.0
sI14
I0
sa(dp55
I1
F3.0
sI2
F2.0
sI4
F1.0
sI5
F1.0
sI6
F2.0
sI14
I0
sa(dp56
I1
F3.0
sI2
F3.0
sI4
F2.0
sI5
F1.0
sI6
F2.0
sI7
F1.0
sI14
I0
sa(dp57
I1
F3.0
sI2
F1.0
sI5
F1.0
sI14
I0
sa(dp58
I1
F3.0
sI2
F2.0
sI3
F1.0
sI5
F1.0
sI6
F1.0
sI14
I0
sa(dp59
I1
F3.0
sI2
F3.0
sI3
F1.0
sI4
F1.0
sI5
F1.0
sI6
F1.0
sI7
F1.0
sI14
I0
sa(dp60
I1
F3.0
sI2
F4.0
sI3
F2.0
sI4
F1.0
sI5
F1.0
sI6
F1.0
sI7
F1.0
sI8
F1.0
sI14
I0
sa(dp61
I1
F3.0
sI2
F5.0
sI3
F2.0
sI4
F2.0
sI5
F1.0
sI6
F1.0
sI7
F1.0
sI8
F1.0
sI9
F3.0
sI14
I0
sa(dp62
I1
F3.0
sI2
F2.0
sI3
F1.0
sI5
F1.0
sI6
F4.0
sI14
I0
sa(dp63
I1
F3.0
sI2
F1.0
sI5
F2.0
sI14
I0
sa(dp64
I1
F3.0
sI2
F2.0
sI4
F1.0
sI5
F2.0
sI6
F5.0
sI14
I0
sa(dp65
I1
F3.0
sI2
F3.0
sI3
F1.0
sI4
F1.0
sI5
F2.0
sI6
F5.0
sI7
F5.0
sI14
I0
sa(dp66
I1
F3.0
sI2
F4.0
sI3
F1.0
sI4
F2.0
sI5
F2.0
sI6
F5.0
sI7
F5.0
sI8
F1.0
sI14
I0
sa(dp67
I1
F3.0
sI2
F6.0
sI3
F2.0
sI4
F2.0
sI5
F2.0
sI6
F5.0
sI7
F5.0
sI8
F1.0
sI9
F1.0
sI10
F4.0
sI14
I0
sa(dp68
I1
F4.0
sI2
F2.0
sI4
F1.0
sI5
F2.0
sI6
F4.0
sI14
I0
sa(dp69
I1
F4.0
sI2
F3.0
sI4
F2.0
sI5
F2.0
sI6
F4.0
sI7
F1.0
sI14
I0
sa(dp70
I1
F4.0
sI2
F4.0
sI3
F1.0
sI4
F2.0
sI5
F2.0
sI6
F4.0
sI7
F1.0
sI8
F1.0
sI14
I0
sa(dp71
I1
F4.0
sI2
F5.0
sI3
F2.0
sI4
F2.0
sI5
F2.0
sI6
F4.0
sI7
F1.0
sI8
F1.0
sI9
F1.0
sI14
I0
sa(dp72
I1
F4.0
sI2
F1.0
sI5
F1.0
sI14
I0
sa(dp73
I1
F4.0
sI2
F2.0
sI4
F1.0
sI5
F1.0
sI6
F1.0
sI14
I0
sa(dp74
I1
F4.0
sI2
F3.0
sI3
F1.0
sI4
F1.0
sI5
F1.0
sI6
F1.0
sI7
F2.0
sI14
I0
sa(dp75
I1
F4.0
sI2
F1.0
sI5
F2.0
sI14
I0
sa(dp76
I1
F4.0
sI2
F3.0
sI3
F2.0
sI5
F2.0
sI6
F1.0
sI7
F4.0
sI14
I0
sa(dp77
I1
F4.0
sI2
F5.0
sI3
F2.0
sI5
F2.0
sI6
F1.0
sI7
F4.0
sI8
F2.0
sI9
F4.0
sI14
I0
sa(dp78
I1
F4.0
sI2
F6.0
sI3
F2.0
sI4
F1.0
sI5
F2.0
sI6
F1.0
sI7
F4.0
sI8
F2.0
sI9
F4.0
sI10
F3.0
sI14
I0
sa(dp79
I1
F5.0
sI2
F1.0
sI5
F1.0
sI14
I0
sa(dp80
I1
F5.0
sI2
F2.0
sI4
F1.0
sI5
F1.0
sI6
F5.0
sI14
I0
sa(dp81
I1
F5.0
sI2
F3.0
sI3
F1.0
sI4
F1.0
sI5
F1.0
sI6
F5.0
sI7
F5.0
sI14
I0
sa(dp82
I1
F5.0
sI2
F1.0
sI5
F1.0
sI14
I0
sa(dp83
I1
F5.0
sI2
F2.0
sI3
F1.0
sI5
F1.0
sI6
F1.0
sI14
I0
sa(dp84
I1
F5.0
sI2
F1.0
sI5
F1.0
sI14
I0
sa(dp85
I1
F5.0
sI2
F2.0
sI4
F1.0
sI5
F1.0
sI6
F2.0
sI14
I0
sa(dp86
I1
F5.0
sI2
F3.0
sI4
F2.0
sI5
F1.0
sI6
F2.0
sI7
F1.0
sI14
I0
sa(dp87
I1
F5.0
sI2
F4.0
sI3
F1.0
sI4
F2.0
sI5
F1.0
sI6
F2.0
sI7
F1.0
sI8
F1.0
sI14
I0
sa(dp88
I1
F5.0
sI2
F6.0
sI3
F2.0
sI4
F3.0
sI5
F1.0
sI6
F2.0
sI7
F1.0
sI8
F1.0
sI9
F5.0
sI10
F4.0
sI14
I0
sa(dp89
I1
F5.0
sI2
F1.0
sI5
F1.0
sI14
I0
sa(dp90
I1
F6.0
sI2
F1.0
sI5
F1.0
sI14
I0
sa(dp91
I1
F6.0
sI2
F2.0
sI3
F1.0
sI5
F1.0
sI6
F1.0
sI14
I0
sa(dp92
I1
F6.0
sI2
F1.0
sI5
F2.0
sI14
I0
sa(dp93
I1
F6.0
sI2
F2.0
sI4
F1.0
sI5
F2.0
sI6
F5.0
sI14
I0
sa(dp94
I1
F6.0
sI2
F3.0
sI3
F1.0
sI4
F1.0
sI5
F2.0
sI6
F5.0
sI7
F5.0
sI14
I0
sa(dp95
I1
F6.0
sI2
F4.0
sI3
F2.0
sI4
F1.0
sI5
F2.0
sI6
F5.0
sI7
F5.0
sI8
F1.0
sI14
I0
sa(dp96
I1
F6.0
sI2
F5.0
sI3
F2.0
sI4
F2.0
sI5
F2.0
sI6
F5.0
sI7
F5.0
sI8
F1.0
sI9
F3.0
sI14
I0
sa(dp97
I1
F6.0
sI2
F7.0
sI3
F2.0
sI4
F2.0
sI5
F2.0
sI6
F5.0
sI7
F5.0
sI8
F1.0
sI9
F3.0
sI10
F1.0
sI11
F4.0
sI14
I0
sa(dp98
I1
F6.0
sI2
F1.0
sI5
F2.0
sI14
I0
sa(dp99
I1
F6.0
sI2
F1.0
sI5
F1.0
sI14
I0
sa(dp100
I1
F6.0
sI2
F2.0
sI3
F1.0
sI5
F1.0
sI6
F1.0
sI14
I0
sa(dp101
I1
F6.0
sI2
F4.0
sI3
F1.0
sI4
F2.0
sI5
F1.0
sI6
F1.0
sI7
F2.0
sI8
F4.0
sI14
I0
sa(dp102
I1
F6.0
sI2
F1.0
sI5
F2.0
sI14
I0
sa(dp103
I1
F1.0
sI2
F1.0
sI5
F1.0
sI14
I0
sa(dp104
I1
F1.0
sI2
F2.0
sI4
F1.0
sI5
F1.0
sI6
F3.0
sI14
I0
sa(dp105
I1
F1.0
sI2
F3.0
sI3
F1.0
sI4
F1.0
sI5
F1.0
sI6
F3.0
sI7
F1.0
sI14
I0
sa(dp106
I1
F1.0
sI2
F1.0
sI5
F1.0
sI14
I0
sa(dp107
I1
F1.0
sI2
F2.0
sI3
F1.0
sI5
F1.0
sI6
F1.0
sI14
I0
sa(dp108
I1
F1.0
sI2
F3.0
sI3
F2.0
sI5
F1.0
sI6
F1.0
sI7
F3.0
sI14
I0
sa(dp109
I1
F1.0
sI2
F4.0
sI3
F2.0
sI4
F1.0
sI5
F1.0
sI6
F1.0
sI7
F3.0
sI8
F3.0
sI14
I0
sa(dp110
I1
F1.0
sI2
F5.0
sI3
F2.0
sI4
F2.0
sI5
F1.0
sI6
F1.0
sI7
F3.0
sI8
F3.0
sI9
F1.0
sI14
I0
sa(dp111
I1
F1.0
sI2
F6.0
sI3
F2.0
sI4
F2.0
sI5
F1.0
sI6
F1.0
sI7
F3.0
sI8
F3.0
sI9
F1.0
sI10
F1.0
sI14
I0
sa(dp112
I1
F1.0
sI2
F1.0
sI5
F1.0
sI14
I0
sa(dp113
I1
F1.0
sI2
F2.0
sI4
F1.0
sI5
F1.0
sI6
F1.0
sI14
I0
sa(dp114
I1
F1.0
sI2
F3.0
sI4
F2.0
sI5
F1.0
sI6
F1.0
sI7
F2.0
sI14
I0
sa(dp115
I1
F1.0
sI2
F4.0
sI3
F1.0
sI4
F2.0
sI5
F1.0
sI6
F1.0
sI7
F2.0
sI8
F1.0
sI14
I0
sa(dp116
I1
F1.0
sI2
F6.0
sI3
F2.0
sI4
F3.0
sI5
F1.0
sI6
F1.0
sI7
F2.0
sI8
F1.0
sI9
F1.0
sI10
F4.0
sI14
I0
sa(dp117
I1
F2.0
sI2
F1.0
sI5
F1.0
sI14
I0
sa(dp118
I1
F2.0
sI2
F2.0
sI4
F1.0
sI5
F1.0
sI6
F1.0
sI14
I0
sa(dp119
I1
F2.0
sI2
F3.0
sI3
F1.0
sI4
F1.0
sI5
F1.0
sI6
F1.0
sI7
F1.0
sI14
I0
sa(dp120
I1
F2.0
sI2
F4.0
sI3
F2.0
sI4
F1.0
sI5
F1.0
sI6
F1.0
sI7
F1.0
sI8
F3.0
sI14
I0
sa(dp121
I1
F2.0
sI2
F5.0
sI3
F2.0
sI4
F2.0
sI5
F1.0
sI6
F1.0
sI7
F1.0
sI8
F3.0
sI9
F3.0
sI14
I0
sa(dp122
I1
F2.0
sI2
F6.0
sI3
F2.0
sI4
F3.0
sI5
F1.0
sI6
F1.0
sI7
F1.0
sI8
F3.0
sI9
F3.0
sI10
F1.0
sI14
I0
sa(dp123
I1
F2.0
sI2
F1.0
sI5
F1.0
sI14
I0
sa(dp124
I1
F2.0
sI2
F3.0
sI4
F2.0
sI5
F1.0
sI6
F1.0
sI14
I0
sa(dp125
I1
F2.0
sI2
F4.0
sI3
F1.0
sI4
F2.0
sI5
F1.0
sI6
F1.0
sI7
F2.0
sI14
I0
sa(dp126
I1
F2.0
sI2
F1.0
sI5
F2.0
sI14
I0
sa(dp127
I1
F2.0
sI2
F2.0
sI3
F1.0
sI5
F2.0
sI6
F1.0
sI14
I0
sa(dp128
I1
F2.0
sI2
F1.0
sI5
F2.0
sI14
I0
sa(dp129
I1
F2.0
sI2
F2.0
sI3
F1.0
sI5
F2.0
sI6
F1.0
sI14
I0
sa(dp130
I1
F2.0
sI2
F3.0
sI3
F2.0
sI5
F2.0
sI6
F1.0
sI7
F1.0
sI14
I0
sa(dp131
I1
F3.0
sI2
F1.0
sI5
F2.0
sI14
I0
sa(dp132
I1
F3.0
sI2
F2.0
sI3
F1.0
sI5
F2.0
sI6
F1.0
sI14
I0
sa(dp133
I1
F3.0
sI2
F3.0
sI3
F1.0
sI4
F1.0
sI5
F2.0
sI6
F1.0
sI7
F2.0
sI14
I0
sa(dp134
I1
F3.0
sI2
F4.0
sI3
F1.0
sI4
F2.0
sI5
F2.0
sI6
F1.0
sI7
F2.0
sI8
F5.0
sI14
I0
sa(dp135
I1
F3.0
sI2
F5.0
sI3
F1.0
sI4
F3.0
sI5
F2.0
sI6
F1.0
sI7
F2.0
sI8
F5.0
sI9
F1.0
sI14
I0
sa(dp136
I1
F3.0
sI2
F6.0
sI3
F2.0
sI4
F3.0
sI5
F2.0
sI6
F1.0
sI7
F2.0
sI8
F5.0
sI9
F1.0
sI10
F1.0
sI14
I0
sa(dp137
I1
F3.0
sI2
F1.0
sI5
F2.0
sI14
I0
sa(dp138
I1
F3.0
sI2
F2.0
sI4
F1.0
sI5
F2.0
sI6
F1.0
sI14
I0
sa(dp139
I1
F3.0
sI2
F3.0
sI3
F1.0
sI4
F1.0
sI5
F2.0
sI6
F1.0
sI7
F1.0
sI14
I0
sa(dp140
I1
F3.0
sI2
F4.0
sI3
F2.0
sI4
F1.0
sI5
F2.0
sI6
F1.0
sI7
F1.0
sI8
F1.0
sI14
I0
sa(dp141
I1
F3.0
sI2
F5.0
sI3
F2.0
sI4
F2.0
sI5
F2.0
sI6
F1.0
sI7
F1.0
sI8
F1.0
sI9
F1.0
sI14
I0
sa(dp142
I1
F3.0
sI2
F6.0
sI3
F2.0
sI4
F3.0
sI5
F2.0
sI6
F1.0
sI7
F1.0
sI8
F1.0
sI9
F1.0
sI10
F2.0
sI14
I0
sa(dp143
I1
F3.0
sI2
F1.0
sI5
F1.0
sI14
I0
sa(dp144
I1
F3.0
sI2
F3.0
sI3
F2.0
sI5
F1.0
sI6
F3.0
sI7
F4.0
sI14
I0
sa(dp145
I1
F3.0
sI2
F4.0
sI3
F2.0
sI4
F1.0
sI5
F1.0
sI6
F3.0
sI7
F4.0
sI8
F2.0
sI14
I0
sa(dp146
I1
F3.0
sI2
F5.0
sI3
F2.0
sI4
F1.0
sI5
F1.0
sI6
F3.0
sI7
F4.0
sI8
F2.0
sI9
F2.0
sI14
I0
sa(dp147
I1
F3.0
sI2
F6.0
sI3
F2.0
sI4
F1.0
sI5
F1.0
sI6
F3.0
sI7
F4.0
sI8
F2.0
sI9
F2.0
sI10
F1.0
sI14
I0
sa(dp148
I1
F4.0
sI2
F2.0
sI3
F1.0
sI5
F1.0
sI6
F4.0
sI14
I0
sa(dp149
I1
F4.0
sI2
F3.0
sI3
F1.0
sI4
F1.0
sI5
F1.0
sI6
F4.0
sI7
F1.0
sI14
I0
sa(dp150
I1
F4.0
sI2
F4.0
sI3
F1.0
sI4
F2.0
sI5
F1.0
sI6
F4.0
sI7
F1.0
sI8
F1.0
sI14
I0
sa(dp151
I1
F4.0
sI2
F1.0
sI5
F1.0
sI14
I0
sa(dp152
I1
F4.0
sI2
F2.0
sI3
F1.0
sI5
F1.0
sI6
F3.0
sI14
I0
sa(dp153
I1
F4.0
sI2
F4.0
sI3
F1.0
sI4
F2.0
sI5
F1.0
sI6
F3.0
sI7
F3.0
sI8
F4.0
sI14
I0
sa(dp154
I1
F4.0
sI2
F5.0
sI3
F2.0
sI4
F2.0
sI5
F1.0
sI6
F3.0
sI7
F3.0
sI8
F4.0
sI9
F1.0
sI14
I0
sa(dp155
I1
F4.0
sI2
F1.0
sI5
F1.0
sI14
I0
sa(dp156
I1
F4.0
sI2
F2.0
sI3
F1.0
sI5
F1.0
sI6
F3.0
sI14
I0
sa(dp157
I1
F4.0
sI2
F3.0
sI3
F1.0
sI4
F1.0
sI5
F1.0
sI6
F3.0
sI7
F5.0
sI14
I0
sa(dp158
I1
F4.0
sI2
F5.0
sI3
F2.0
sI4
F2.0
sI5
F1.0
sI6
F3.0
sI7
F5.0
sI8
F1.0
sI9
F4.0
sI14
I0
sa(dp159
I1
F4.0
sI2
F7.0
sI3
F2.0
sI4
F3.0
sI5
F1.0
sI6
F3.0
sI7
F5.0
sI8
F1.0
sI9
F4.0
sI10
F1.0
sI11
F4.0
sI14
I0
sa(dp160
I1
F5.0
sI2
F1.0
sI5
F1.0
sI14
I0
sa(dp161
I1
F5.0
sI2
F1.0
sI5
F2.0
sI14
I0
sa(dp162
I1
F5.0
sI2
F2.0
sI4
F1.0
sI5
F2.0
sI6
F1.0
sI14
I0
sa(dp163
I1
F5.0
sI2
F3.0
sI3
F1.0
sI4
F1.0
sI5
F2.0
sI6
F1.0
sI7
F1.0
sI14
I0
sa(dp164
I1
F5.0
sI2
F1.0
sI5
F2.0
sI14
I0
sa(dp165
I1
F5.0
sI2
F2.0
sI3
F1.0
sI5
F2.0
sI6
F1.0
sI14
I0
sa(dp166
I1
F6.0
sI2
F1.0
sI5
F2.0
sI14
I0
sa(dp167
I1
F6.0
sI2
F2.0
sI4
F1.0
sI5
F2.0
sI6
F5.0
sI14
I0
sa(dp168
I1
F6.0
sI2
F3.0
sI4
F2.0
sI5
F2.0
sI6
F5.0
sI7
F2.0
sI14
I0
sa(dp169
I1
F6.0
sI2
F1.0
sI5
F2.0
sI14
I0
sa(dp170
I1
F6.0
sI2
F2.0
sI3
F1.0
sI5
F2.0
sI6
F1.0
sI14
I0
sa(dp171
I1
F6.0
sI2
F3.0
sI3
F2.0
sI5
F2.0
sI6
F1.0
sI7
F2.0
sI14
I0
sa(dp172
I1
F6.0
sI2
F1.0
sI5
F1.0
sI14
I0
sa(dp173
I1
F6.0
sI2
F2.0
sI3
F1.0
sI5
F1.0
sI6
F1.0
sI14
I0
sa(dp174
I1
F6.0
sI2
F2.0
sI3
F1.0
sI5
F1.0
sI6
F4.0
sI14
I0
sa(dp175
I1
F6.0
sI2
F3.0
sI3
F2.0
sI5
F1.0
sI6
F4.0
sI7
F1.0
sI14
I0
sa(dp176
I1
F6.0
sI2
F4.0
sI3
F2.0
sI4
F1.0
sI5
F1.0
sI6
F4.0
sI7
F1.0
sI8
F3.0
sI14
I0
sa(dp177
I1
F6.0
sI2
F5.0
sI3
F2.0
sI4
F1.0
sI5
F1.0
sI6
F4.0
sI7
F1.0
sI8
F3.0
sI9
F1.0
sI14
I0
sa(dp178
I1
F6.0
sI2
F6.0
sI3
F2.0
sI4
F2.0
sI5
F1.0
sI6
F4.0
sI7
F1.0
sI8
F3.0
sI9
F1.0
sI10
F5.0
sI14
I0
sa(dp179
I1
F6.0
sI2
F7.0
sI3
F2.0
sI4
F3.0
sI5
F1.0
sI6
F4.0
sI7
F1.0
sI8
F3.0
sI9
F1.0
sI10
F5.0
sI11
F2.0
sI14
I0
sa(dp180
I1
F7.0
sI2
F1.0
sI5
F1.0
sI14
I0
sa(dp181
I1
F7.0
sI2
F2.0
sI4
F1.0
sI5
F1.0
sI6
F5.0
sI14
I0
sa(dp182
I1
F7.0
sI2
F3.0
sI3
F1.0
sI4
F1.0
sI5
F1.0
sI6
F5.0
sI7
F5.0
sI14
I0
sa(dp183
I1
F7.0
sI2
F4.0
sI3
F1.0
sI4
F2.0
sI5
F1.0
sI6
F5.0
sI7
F5.0
sI8
F1.0
sI14
I0
sa(dp184
I1
F7.0
sI2
F5.0
sI3
F1.0
sI4
F3.0
sI5
F1.0
sI6
F5.0
sI7
F5.0
sI8
F1.0
sI9
F5.0
sI14
I0
sa(dp185
I1
F7.0
sI2
F1.0
sI5
F1.0
sI14
I0
sa(dp186
I1
F7.0
sI2
F1.0
sI5
F1.0
sI14
I0
sa(dp187
I1
F7.0
sI2
F2.0
sI4
F1.0
sI5
F1.0
sI6
F2.0
sI14
I0
sa(dp188
I1
F7.0
sI2
F3.0
sI3
F1.0
sI4
F1.0
sI5
F1.0
sI6
F2.0
sI7
F2.0
sI14
I0
sa(dp189
I1
F7.0
sI2
F4.0
sI3
F2.0
sI4
F1.0
sI5
F1.0
sI6
F2.0
sI7
F2.0
sI8
F1.0
sI14
I0
sa(dp190
I1
F7.0
sI2
F5.0
sI3
F2.0
sI4
F2.0
sI5
F1.0
sI6
F2.0
sI7
F2.0
sI8
F1.0
sI9
F3.0
sI14
I0
sa(dp191
I1
F1.0
sI2
F1.0
sI5
F1.0
sI14
I0
sa(dp192
I1
F1.0
sI2
F2.0
sI4
F1.0
sI5
F1.0
sI6
F1.0
sI14
I0
sa(dp193
I1
F1.0
sI2
F3.0
sI3
F1.0
sI4
F1.0
sI5
F1.0
sI6
F1.0
sI7
F3.0
sI14
I0
sa(dp194
I1
F1.0
sI2
F4.0
sI3
F1.0
sI4
F2.0
sI5
F1.0
sI6
F1.0
sI7
F3.0
sI8
F1.0
sI14
I0
sa(dp195
I1
F1.0
sI2
F5.0
sI3
F1.0
sI4
F3.0
sI5
F1.0
sI6
F1.0
sI7
F3.0
sI8
F1.0
sI9
F3.0
sI14
I0
sa(dp196
I1
F1.0
sI2
F6.0
sI3
F2.0
sI4
F3.0
sI5
F1.0
sI6
F1.0
sI7
F3.0
sI8
F1.0
sI9
F3.0
sI10
F1.0
sI14
I0
sa(dp197
I1
F1.0
sI2
F1.0
sI5
F2.0
sI14
I0
sa(dp198
I1
F1.0
sI2
F2.0
sI3
F1.0
sI5
F2.0
sI6
F3.0
sI14
I0
sa(dp199
I1
F1.0
sI2
F3.0
sI3
F1.0
sI4
F1.0
sI5
F2.0
sI6
F3.0
sI7
F1.0
sI14
I0
sa(dp200
I1
F1.0
sI2
F4.0
sI3
F2.0
sI4
F1.0
sI5
F2.0
sI6
F3.0
sI7
F1.0
sI8
F3.0
sI14
I0
sa(dp201
I1
F1.0
sI2
F1.0
sI5
F1.0
sI14
I0
sa(dp202
I1
F1.0
sI2
F2.0
sI3
F1.0
sI5
F1.0
sI6
F1.0
sI14
I0
sa(dp203
I1
F1.0
sI2
F3.0
sI3
F1.0
sI4
F1.0
sI5
F1.0
sI6
F1.0
sI7
F3.0
sI14
I0
sa(dp204
I1
F1.0
sI2
F4.0
sI3
F2.0
sI4
F1.0
sI5
F1.0
sI6
F1.0
sI7
F3.0
sI8
F5.0
sI14
I0
sa(dp205
I1
F2.0
sI2
F1.0
sI5
F2.0
sI14
I0
sa(dp206
I1
F2.0
sI2
F2.0
sI4
F1.0
sI5
F2.0
sI6
F3.0
sI14
I0
sa(dp207
I1
F2.0
sI2
F3.0
sI4
F2.0
sI5
F2.0
sI6
F3.0
sI7
F3.0
sI14
I0
sa(dp208
I1
F2.0
sI2
F4.0
sI4
F3.0
sI5
F2.0
sI6
F3.0
sI7
F3.0
sI8
F3.0
sI14
I0
sa(dp209
I1
F2.0
sI2
F5.0
sI3
F1.0
sI4
F3.0
sI5
F2.0
sI6
F3.0
sI7
F3.0
sI8
F3.0
sI9
F1.0
sI14
I0
sa(dp210
I1
F2.0
sI2
F6.0
sI3
F2.0
sI4
F3.0
sI5
F2.0
sI6
F3.0
sI7
F3.0
sI8
F3.0
sI9
F1.0
sI10
F1.0
sI14
I0
sa(dp211
I1
F2.0
sI2
F7.0
sI3
F2.0
sI4
F3.0
sI5
F2.0
sI6
F3.0
sI7
F3.0
sI8
F3.0
sI9
F1.0
sI10
F1.0
sI11
F3.0
sI14
I0
sa(dp212
I1
F2.0
sI2
F1.0
sI5
F1.0
sI14
I0
sa(dp213
I1
F2.0
sI2
F2.0
sI3
F1.0
sI5
F1.0
sI6
F3.0
sI14
I0
sa(dp214
I1
F2.0
sI2
F3.0
sI3
F1.0
sI4
F1.0
sI5
F1.0
sI6
F3.0
sI7
F1.0
sI14
I0
sa(dp215
I1
F2.0
sI2
F4.0
sI3
F1.0
sI4
F2.0
sI5
F1.0
sI6
F3.0
sI7
F1.0
sI8
F1.0
sI14
I0
sa(dp216
I1
F2.0
sI2
F5.0
sI3
F2.0
sI4
F2.0
sI5
F1.0
sI6
F3.0
sI7
F1.0
sI8
F1.0
sI9
F1.0
sI14
I0
sa(dp217
I1
F2.0
sI2
F6.0
sI3
F2.0
sI4
F3.0
sI5
F1.0
sI6
F3.0
sI7
F1.0
sI8
F1.0
sI9
F1.0
sI10
F3.0
sI14
I0
sa(dp218
I1
F2.0
sI2
F1.0
sI5
F2.0
sI14
I0
sa(dp219
I1
F2.0
sI2
F2.0
sI3
F1.0
sI5
F2.0
sI6
F1.0
sI14
I0
sa(dp220
I1
F2.0
sI2
F3.0
sI3
F1.0
sI4
F1.0
sI5
F2.0
sI6
F1.0
sI7
F1.0
sI14
I0
sa(dp221
I1
F2.0
sI2
F4.0
sI3
F2.0
sI4
F1.0
sI5
F2.0
sI6
F1.0
sI7
F1.0
sI8
F5.0
sI14
I0
sa(dp222
I1
F2.0
sI2
F5.0
sI3
F2.0
sI4
F2.0
sI5
F2.0
sI6
F1.0
sI7
F1.0
sI8
F5.0
sI9
F3.0
sI14
I0
sa(dp223
I1
F3.0
sI2
F1.0
sI5
F1.0
sI14
I0
sa(dp224
I1
F3.0
sI2
F1.0
sI5
F2.0
sI14
I0
sa(dp225
I1
F3.0
sI2
F2.0
sI4
F1.0
sI5
F2.0
sI6
F1.0
sI14
I0
sa(dp226
I1
F3.0
sI2
F3.0
sI3
F1.0
sI4
F1.0
sI5
F2.0
sI6
F1.0
sI7
F1.0
sI14
I0
sa(dp227
I1
F3.0
sI2
F4.0
sI3
F2.0
sI4
F1.0
sI5
F2.0
sI6
F1.0
sI7
F1.0
sI8
F3.0
sI14
I0
sa(dp228
I1
F3.0
sI2
F1.0
sI5
F2.0
sI14
I0
sa(dp229
I1
F3.0
sI2
F2.0
sI3
F1.0
sI5
F2.0
sI6
F2.0
sI14
I0
sa(dp230
I1
F3.0
sI2
F2.0
sI3
F1.0
sI5
F1.0
sI6
F4.0
sI14
I0
sa(dp231
I1
F3.0
sI2
F3.0
sI3
F1.0
sI4
F1.0
sI5
F1.0
sI6
F4.0
sI7
F3.0
sI14
I0
sa(dp232
I1
F3.0
sI2
F4.0
sI3
F2.0
sI4
F1.0
sI5
F1.0
sI6
F4.0
sI7
F3.0
sI8
F3.0
sI14
I0
sa(dp233
I1
F3.0
sI2
F5.0
sI3
F2.0
sI4
F2.0
sI5
F1.0
sI6
F4.0
sI7
F3.0
sI8
F3.0
sI9
F3.0
sI14
I0
sa(dp234
I1
F3.0
sI2
F6.0
sI3
F2.0
sI4
F3.0
sI5
F1.0
sI6
F4.0
sI7
F3.0
sI8
F3.0
sI9
F3.0
sI10
F5.0
sI14
I0
sa(dp235
I1
F4.0
sI2
F1.0
sI5
F2.0
sI14
I0
sa(dp236
I1
F4.0
sI2
F2.0
sI3
F1.0
sI5
F2.0
sI6
F3.0
sI14
I0
sa(dp237
I1
F4.0
sI2
F3.0
sI3
F1.0
sI4
F1.0
sI5
F2.0
sI6
F3.0
sI7
F1.0
sI14
I0
sa(dp238
I1
F4.0
sI2
F2.0
sI4
F1.0
sI5
F1.0
sI6
F4.0
sI14
I0
sa(dp239
I1
F4.0
sI2
F2.0
sI3
F1.0
sI5
F2.0
sI6
F4.0
sI14
I0
sa(dp240
I1
F4.0
sI2
F3.0
sI3
F2.0
sI5
F2.0
sI6
F4.0
sI7
F3.0
sI14
I0
sa(dp241
I1
F4.0
sI2
F4.0
sI3
F2.0
sI4
F1.0
sI5
F2.0
sI6
F4.0
sI7
F3.0
sI8
F2.0
sI14
I0
sa(dp242
I1
F4.0
sI2
F1.0
sI5
F1.0
sI14
I0
sa(dp243
I1
F4.0
sI2
F2.0
sI4
F1.0
sI5
F1.0
sI6
F3.0
sI14
I0
sa(dp244
I1
F4.0
sI2
F3.0
sI4
F2.0
sI5
F1.0
sI6
F3.0
sI7
F3.0
sI14
I0
sa(dp245
I1
F4.0
sI2
F4.0
sI3
F1.0
sI4
F2.0
sI5
F1.0
sI6
F3.0
sI7
F3.0
sI8
F1.0
sI14
I0
sa(dp246
I1
F4.0
sI2
F5.0
sI3
F1.0
sI4
F3.0
sI5
F1.0
sI6
F3.0
sI7
F3.0
sI8
F1.0
sI9
F1.0
sI14
I0
sa(dp247
I1
F4.0
sI2
F6.0
sI3
F2.0
sI4
F3.0
sI5
F1.0
sI6
F3.0
sI7
F3.0
sI8
F1.0
sI9
F1.0
sI10
F3.0
sI14
I0
sa(dp248
I1
F4.0
sI2
F1.0
sI5
F2.0
sI14
I0
sa(dp249
I1
F5.0
sI2
F1.0
sI5
F1.0
sI14
I0
sa(dp250
I1
F5.0
sI2
F1.0
sI5
F2.0
sI14
I0
sa(dp251
I1
F5.0
sI2
F2.0
sI4
F1.0
sI5
F2.0
sI6
F2.0
sI14
I0
sa(dp252
I1
F5.0
sI2
F3.0
sI3
F1.0
sI4
F1.0
sI5
F2.0
sI6
F2.0
sI7
F1.0
sI14
I0
sa(dp253
I1
F5.0
sI2
F4.0
sI3
F1.0
sI4
F2.0
sI5
F2.0
sI6
F2.0
sI7
F1.0
sI8
F2.0
sI14
I0
sa(dp254
I1
F5.0
sI2
F5.0
sI3
F2.0
sI4
F2.0
sI5
F2.0
sI6
F2.0
sI7
F1.0
sI8
F2.0
sI9
F5.0
sI14
I0
sa(dp255
I1
F5.0
sI2
F6.0
sI3
F2.0
sI4
F3.0
sI5
F2.0
sI6
F2.0
sI7
F1.0
sI8
F2.0
sI9
F5.0
sI10
F2.0
sI14
I0
sa(dp256
I1
F5.0
sI2
F1.0
sI5
F2.0
sI14
I0
sa(dp257
I1
F5.0
sI2
F3.0
sI3
F2.0
sI5
F2.0
sI6
F1.0
sI7
F4.0
sI14
I0
sa(dp258
I1
F5.0
sI2
F4.0
sI3
F2.0
sI4
F1.0
sI5
F2.0
sI6
F1.0
sI7
F4.0
sI8
F2.0
sI14
I0
sa(dp259
I1
F5.0
sI2
F5.0
sI3
F2.0
sI4
F2.0
sI5
F2.0
sI6
F1.0
sI7
F4.0
sI8
F2.0
sI9
F1.0
sI14
I0
sa(dp260
I1
F6.0
sI2
F1.0
sI5
F1.0
sI14
I0
sa(dp261
I1
F6.0
sI2
F2.0
sI4
F1.0
sI5
F1.0
sI6
F1.0
sI14
I0
sa(dp262
I1
F6.0
sI2
F3.0
sI4
F2.0
sI5
F1.0
sI6
F1.0
sI7
F1.0
sI14
I0
sa(dp263
I1
F6.0
sI2
F4.0
sI4
F3.0
sI5
F1.0
sI6
F1.0
sI7
F1.0
sI8
F1.0
sI14
I0
sa(dp264
I1
F6.0
sI2
F5.0
sI3
F1.0
sI4
F3.0
sI5
F1.0
sI6
F1.0
sI7
F1.0
sI8
F1.0
sI9
F1.0
sI14
I0
sa(dp265
I1
F6.0
sI2
F6.0
sI3
F2.0
sI4
F3.0
sI5
F1.0
sI6
F1.0
sI7
F1.0
sI8
F1.0
sI9
F1.0
sI10
F1.0
sI14
I0
sa(dp266
I1
F6.0
sI2
F7.0
sI3
F2.0
sI4
F3.0
sI5
F1.0
sI6
F1.0
sI7
F1.0
sI8
F1.0
sI9
F1.0
sI10
F1.0
sI11
F1.0
sI14
I0
sa(dp267
I1
F6.0
sI2
F8.0
sI3
F2.0
sI4
F3.0
sI5
F1.0
sI6
F1.0
sI7
F1.0
sI8
F1.0
sI9
F1.0
sI10
F1.0
sI11
F1.0
sI12
F3.0
sI14
I0
sa(dp268
I1
F6.0
sI2
F1.0
sI5
F2.0
sI14
I0
sa(dp269
I1
F6.0
sI2
F2.0
sI3
F1.0
sI5
F2.0
sI6
F1.0
sI14
I0
sa(dp270
I1
F6.0
sI2
F3.0
sI3
F2.0
sI5
F2.0
sI6
F1.0
sI7
F1.0
sI14
I0
sa(dp271
I1
F6.0
sI2
F4.0
sI3
F2.0
sI4
F1.0
sI5
F2.0
sI6
F1.0
sI7
F1.0
sI8
F3.0
sI14
I0
sa(dp272
I1
F6.0
sI2
F5.0
sI3
F2.0
sI4
F1.0
sI5
F2.0
sI6
F1.0
sI7
F1.0
sI8
F3.0
sI9
F1.0
sI14
I0
sa(dp273
I1
F6.0
sI2
F1.0
sI5
F1.0
sI14
I0
sa(dp274
I1
F6.0
sI2
F2.0
sI4
F1.0
sI5
F1.0
sI6
F1.0
sI14
I0
sa(dp275
I1
F6.0
sI2
F1.0
sI5
F2.0
sI14
I0
sa(dp276
I1
F6.0
sI2
F2.0
sI4
F1.0
sI5
F2.0
sI6
F5.0
sI14
I0
sa(dp277
I1
F6.0
sI2
F3.0
sI3
F1.0
sI4
F1.0
sI5
F2.0
sI6
F5.0
sI7
F5.0
sI14
I0
sa(dp278
I1
F6.0
sI2
F4.0
sI3
F1.0
sI4
F2.0
sI5
F2.0
sI6
F5.0
sI7
F5.0
sI8
F1.0
sI14
I0
sa(dp279
I1
F6.0
sI2
F1.0
sI5
F1.0
sI14
I0
sa(dp280
I1
F6.0
sI2
F2.0
sI4
F1.0
sI5
F1.0
sI6
F3.0
sI14
I0
sa(dp281
I1
F6.0
sI2
F3.0
sI4
F2.0
sI5
F1.0
sI6
F3.0
sI7
F1.0
sI14
I0
sa(dp282
I1
F7.0
sI2
F1.0
sI5
F2.0
sI14
I0
sa(dp283
I1
F7.0
sI2
F2.0
sI4
F1.0
sI5
F2.0
sI6
F3.0
sI14
I0
sa(dp284
I1
F7.0
sI2
F3.0
sI3
F1.0
sI4
F1.0
sI5
F2.0
sI6
F3.0
sI7
F3.0
sI14
I0
sa(dp285
I1
F7.0
sI2
F4.0
sI3
F1.0
sI4
F2.0
sI5
F2.0
sI6
F3.0
sI7
F3.0
sI8
F1.0
sI14
I0
sa(dp286
I1
F7.0
sI2
F1.0
sI5
F1.0
sI14
I0
sa(dp287
I1
F7.0
sI2
F2.0
sI4
F1.0
sI5
F1.0
sI6
F1.0
sI14
I0
sa(dp288
I1
F7.0
sI2
F3.0
sI3
F1.0
sI4
F1.0
sI5
F1.0
sI6
F1.0
sI7
F3.0
sI14
I0
sa(dp289
I1
F7.0
sI2
F4.0
sI3
F1.0
sI4
F2.0
sI5
F1.0
sI6
F1.0
sI7
F3.0
sI8
F5.0
sI14
I0
sa(dp290
I1
F7.0
sI2
F5.0
sI3
F2.0
sI4
F2.0
sI5
F1.0
sI6
F1.0
sI7
F3.0
sI8
F5.0
sI9
F5.0
sI14
I0
sa(dp291
I1
F7.0
sI2
F1.0
sI5
F2.0
sI14
I0
sa(dp292
I1
F7.0
sI2
F2.0
sI4
F1.0
sI5
F2.0
sI6
F1.0
sI14
I0
sa(dp293
I1
F7.0
sI2
F1.0
sI5
F2.0
sI14
I0
sa(dp294
I1
F7.0
sI2
F1.0
sI5
F1.0
sI14
I0
sa(dp295
I1
F7.0
sI2
F2.0
sI3
F1.0
sI5
F1.0
sI6
F1.0
sI14
I0
sa(dp296
I1
F7.0
sI2
F3.0
sI3
F1.0
sI4
F1.0
sI5
F1.0
sI6
F1.0
sI7
F3.0
sI14
I0
sa(dp297
I1
F7.0
sI2
F4.0
sI3
F1.0
sI4
F2.0
sI5
F1.0
sI6
F1.0
sI7
F3.0
sI8
F5.0
sI14
I0
sa(dp298
I1
F1.0
sI2
F1.0
sI5
F2.0
sI14
I0
sa(dp299
I1
F1.0
sI2
F2.0
sI3
F1.0
sI5
F2.0
sI6
F1.0
sI14
I0
sa(dp300
I1
F1.0
sI2
F1.0
sI5
F1.0
sI14
I0
sa(dp301
I1
F1.0
sI2
F2.0
sI3
F1.0
sI5
F1.0
sI6
F3.0
sI14
I0
sa(dp302
I1
F1.0
sI2
F3.0
sI3
F2.0
sI5
F1.0
sI6
F3.0
sI7
F1.0
sI14
I0
sa(dp303
I1
F1.0
sI2
F4.0
sI3
F2.0
sI4
F1.0
sI5
F1.0
sI6
F3.0
sI7
F1.0
sI8
F2.0
sI14
I0
sa(dp304
I1
F1.0
sI2
F5.0
sI3
F2.0
sI4
F1.0
sI5
F1.0
sI6
F3.0
sI7
F1.0
sI8
F2.0
sI9
F1.0
sI14
I0
sa(dp305
I1
F1.0
sI2
F1.0
sI5
F1.0
sI14
I0
sa(dp306
I1
F1.0
sI2
F2.0
sI4
F1.0
sI5
F1.0
sI6
F1.0
sI14
I0
sa(dp307
I1
F1.0
sI2
F3.0
sI4
F2.0
sI5
F1.0
sI6
F1.0
sI7
F1.0
sI14
I0
sa(dp308
I1
F1.0
sI2
F1.0
sI5
F2.0
sI14
I0
sa(dp309
I1
F1.0
sI2
F2.0
sI3
F1.0
sI5
F2.0
sI6
F5.0
sI14
I0
sa(dp310
I1
F1.0
sI2
F3.0
sI3
F2.0
sI5
F2.0
sI6
F5.0
sI7
F3.0
sI14
I0
sa(dp311
I1
F1.0
sI2
F4.0
sI3
F2.0
sI5
F2.0
sI6
F5.0
sI7
F3.0
sI8
F3.0
sI14
I0
sa(dp312
I1
F1.0
sI2
F5.0
sI3
F2.0
sI5
F2.0
sI6
F5.0
sI7
F3.0
sI8
F3.0
sI9
F3.0
sI14
I0
sa(dp313
I1
F1.0
sI2
F6.0
sI3
F2.0
sI4
F1.0
sI5
F2.0
sI6
F5.0
sI7
F3.0
sI8
F3.0
sI9
F3.0
sI10
F5.0
sI14
I0
sa(dp314
I1
F1.0
sI2
F7.0
sI3
F2.0
sI4
F2.0
sI5
F2.0
sI6
F5.0
sI7
F3.0
sI8
F3.0
sI9
F3.0
sI10
F5.0
sI11
F3.0
sI14
I0
sa(dp315
I1
F2.0
sI2
F1.0
sI5
F1.0
sI14
I0
sa(dp316
I1
F2.0
sI2
F2.0
sI3
F1.0
sI5
F1.0
sI6
F2.0
sI14
I0
sa(dp317
I1
F2.0
sI2
F3.0
sI3
F2.0
sI5
F1.0
sI6
F2.0
sI7
F3.0
sI14
I0
sa(dp318
I1
F2.0
sI2
F4.0
sI3
F2.0
sI4
F1.0
sI5
F1.0
sI6
F2.0
sI7
F3.0
sI8
F3.0
sI14
I0
sa(dp319
I1
F2.0
sI2
F1.0
sI5
F2.0
sI14
I0
sa(dp320
I1
F2.0
sI2
F1.0
sI5
F2.0
sI14
I0
sa(dp321
I1
F2.0
sI2
F2.0
sI3
F1.0
sI5
F2.0
sI6
F3.0
sI14
I0
sa(dp322
I1
F2.0
sI2
F3.0
sI3
F1.0
sI4
F1.0
sI5
F2.0
sI6
F3.0
sI7
F2.0
sI14
I0
sa(dp323
I1
F2.0
sI2
F4.0
sI3
F2.0
sI4
F1.0
sI5
F2.0
sI6
F3.0
sI7
F2.0
sI8
F1.0
sI14
I0
sa(dp324
I1
F2.0
sI2
F5.0
sI3
F2.0
sI4
F2.0
sI5
F2.0
sI6
F3.0
sI7
F2.0
sI8
F1.0
sI9
F1.0
sI14
I0
sa(dp325
I1
F2.0
sI2
F6.0
sI3
F2.0
sI4
F2.0
sI5
F2.0
sI6
F3.0
sI7
F2.0
sI8
F1.0
sI9
F1.0
sI10
F5.0
sI14
I0
sa(dp326
I1
F2.0
sI2
F7.0
sI3
F2.0
sI4
F3.0
sI5
F2.0
sI6
F3.0
sI7
F2.0
sI8
F1.0
sI9
F1.0
sI10
F5.0
sI11
F1.0
sI14
I0
sa(dp327
I1
F2.0
sI2
F8.0
sI3
F2.0
sI4
F3.0
sI5
F2.0
sI6
F3.0
sI7
F2.0
sI8
F1.0
sI9
F1.0
sI10
F5.0
sI11
F1.0
sI12
F5.0
sI14
I0
sa(dp328
I1
F2.0
sI2
F9.0
sI3
F2.0
sI4
F3.0
sI5
F2.0
sI6
F3.0
sI7
F2.0
sI8
F1.0
sI9
F1.0
sI10
F5.0
sI11
F1.0
sI12
F5.0
sI13
F3.0
sI14
I0
sa(dp329
I1
F2.0
sI2
F1.0
sI5
F2.0
sI14
I0
sa(dp330
I1
F3.0
sI2
F1.0
sI5
F1.0
sI14
I0
sa(dp331
I1
F3.0
sI2
F2.0
sI3
F1.0
sI5
F1.0
sI6
F5.0
sI14
I0
sa(dp332
I1
F3.0
sI2
F3.0
sI3
F2.0
sI5
F1.0
sI6
F5.0
sI7
F1.0
sI14
I0
sa(dp333
I1
F3.0
sI2
F1.0
sI5
F2.0
sI14
I0
sa(dp334
I1
F3.0
sI2
F2.0
sI4
F1.0
sI5
F2.0
sI6
F1.0
sI14
I0
sa(dp335
I1
F3.0
sI2
F3.0
sI4
F2.0
sI5
F2.0
sI6
F1.0
sI7
F1.0
sI14
I0
sa(dp336
I1
F3.0
sI2
F4.0
sI3
F1.0
sI4
F2.0
sI5
F2.0
sI6
F1.0
sI7
F1.0
sI8
F1.0
sI14
I0
sa(dp337
I1
F3.0
sI2
F5.0
sI3
F2.0
sI4
F2.0
sI5
F2.0
sI6
F1.0
sI7
F1.0
sI8
F1.0
sI9
F5.0
sI14
I0
sa(dp338
I1
F3.0
sI2
F2.0
sI3
F1.0
sI5
F1.0
sI6
F4.0
sI14
I0
sa(dp339
I1
F3.0
sI2
F3.0
sI3
F1.0
sI4
F1.0
sI5
F1.0
sI6
F4.0
sI7
F5.0
sI14
I0
sa(dp340
I1
F3.0
sI2
F4.0
sI3
F1.0
sI4
F2.0
sI5
F1.0
sI6
F4.0
sI7
F5.0
sI8
F2.0
sI14
I0
sa(dp341
I1
F4.0
sI2
F1.0
sI5
F2.0
sI14
I0
sa(dp342
I1
F4.0
sI2
F2.0
sI3
F1.0
sI5
F2.0
sI6
F1.0
sI14
I0
sa(dp343
I1
F4.0
sI2
F3.0
sI3
F2.0
sI5
F2.0
sI6
F1.0
sI7
F2.0
sI14
I0
sa(dp344
I1
F4.0
sI2
F5.0
sI3
F2.0
sI4
F1.0
sI5
F2.0
sI6
F1.0
sI7
F2.0
sI8
F3.0
sI9
F4.0
sI14
I0
sa(dp345
I1
F4.0
sI2
F1.0
sI5
F1.0
sI14
I0
sa(dp346
I1
F4.0
sI2
F2.0
sI3
F1.0
sI5
F1.0
sI6
F1.0
sI14
I0
sa(dp347
I1
F4.0
sI2
F3.0
sI3
F1.0
sI4
F1.0
sI5
F1.0
sI6
F1.0
sI7
F1.0
sI14
I0
sa(dp348
I1
F4.0
sI2
F4.0
sI3
F2.0
sI4
F1.0
sI5
F1.0
sI6
F1.0
sI7
F1.0
sI8
F5.0
sI14
I0
sa(dp349
I1
F4.0
sI2
F5.0
sI3
F2.0
sI4
F1.0
sI5
F1.0
sI6
F1.0
sI7
F1.0
sI8
F5.0
sI9
F3.0
sI14
I0
sa(dp350
I1
F5.0
sI2
F1.0
sI5
F2.0
sI14
I0
sa(dp351
I1
F5.0
sI2
F2.0
sI3
F1.0
sI5
F2.0
sI6
F5.0
sI14
I0
sa(dp352
I1
F5.0
sI2
F1.0
sI5
F2.0
sI14
I0
sa(dp353
I1
F5.0
sI2
F2.0
sI4
F1.0
sI5
F2.0
sI6
F1.0
sI14
I0
sa(dp354
I1
F5.0
sI2
F3.0
sI3
F1.0
sI4
F1.0
sI5
F2.0
sI6
F1.0
sI7
F5.0
sI14
I0
sa(dp355
I1
F5.0
sI2
F4.0
sI3
F2.0
sI4
F1.0
sI5
F2.0
sI6
F1.0
sI7
F5.0
sI8
F5.0
sI14
I0
sa(dp356
I1
F5.0
sI2
F5.0
sI3
F2.0
sI4
F1.0
sI5
F2.0
sI6
F1.0
sI7
F5.0
sI8
F5.0
sI9
F3.0
sI14
I0
sa(dp357
I1
F5.0
sI2
F1.0
sI5
F2.0
sI14
I0
sa(dp358
I1
F5.0
sI2
F2.0
sI3
F1.0
sI5
F2.0
sI6
F5.0
sI14
I0
sa(dp359
I1
F5.0
sI2
F3.0
sI3
F2.0
sI5
F2.0
sI6
F5.0
sI7
F5.0
sI14
I0
sa(dp360
I1
F5.0
sI2
F4.0
sI3
F2.0
sI4
F1.0
sI5
F2.0
sI6
F5.0
sI7
F5.0
sI8
F3.0
sI14
I0
sa(dp361
I1
F6.0
sI2
F1.0
sI5
F1.0
sI14
I0
sa(dp362
I1
F6.0
sI2
F2.0
sI3
F1.0
sI5
F1.0
sI6
F5.0
sI14
I0
sa(dp363
I1
F6.0
sI2
F3.0
sI3
F2.0
sI5
F1.0
sI6
F5.0
sI7
F1.0
sI14
I0
sa(dp364
I1
F6.0
sI2
F4.0
sI3
F2.0
sI5
F1.0
sI6
F5.0
sI7
F1.0
sI8
F1.0
sI14
I0
sa(dp365
I1
F6.0
sI2
F5.0
sI3
F2.0
sI4
F1.0
sI5
F1.0
sI6
F5.0
sI7
F1.0
sI8
F1.0
sI9
F3.0
sI14
I0
sa(dp366
I1
F6.0
sI2
F6.0
sI3
F2.0
sI4
F1.0
sI5
F1.0
sI6
F5.0
sI7
F1.0
sI8
F1.0
sI9
F3.0
sI10
F1.0
sI14
I0
sa(dp367
I1
F6.0
sI2
F1.0
sI5
F2.0
sI14
I0
sa(dp368
I1
F6.0
sI2
F2.0
sI4
F1.0
sI5
F2.0
sI6
F1.0
sI14
I0
sa(dp369
I1
F6.0
sI2
F3.0
sI4
F2.0
sI5
F2.0
sI6
F1.0
sI7
F1.0
sI14
I0
sa(dp370
I1
F6.0
sI2
F5.0
sI3
F1.0
sI4
F3.0
sI5
F2.0
sI6
F1.0
sI7
F1.0
sI8
F1.0
sI9
F4.0
sI14
I0
sa(dp371
I1
F6.0
sI2
F1.0
sI5
F1.0
sI14
I0
sa(dp372
I1
F6.0
sI2
F2.0
sI3
F1.0
sI5
F1.0
sI6
F1.0
sI14
I0
sa(dp373
I1
F6.0
sI2
F3.0
sI3
F2.0
sI5
F1.0
sI6
F1.0
sI7
F1.0
sI14
I0
sa(dp374
I1
F6.0
sI2
F4.0
sI3
F2.0
sI4
F1.0
sI5
F1.0
sI6
F1.0
sI7
F1.0
sI8
F3.0
sI14
I0
sa(dp375
I1
F6.0
sI2
F1.0
sI5
F1.0
sI14
I0
sa(dp376
I1
F7.0
sI2
F1.0
sI5
F2.0
sI14
I0
sa(dp377
I1
F7.0
sI2
F2.0
sI3
F1.0
sI5
F2.0
sI6
F5.0
sI14
I0
sa(dp378
I1
F7.0
sI2
F3.0
sI3
F2.0
sI5
F2.0
sI6
F5.0
sI7
F3.0
sI14
I0
sa(dp379
I1
F7.0
sI2
F4.0
sI3
F2.0
sI5
F2.0
sI6
F5.0
sI7
F3.0
sI8
F2.0
sI14
I0
sa(dp380
I1
F7.0
sI2
F2.0
sI3
F1.0
sI5
F1.0
sI6
F4.0
sI14
I0
sa(dp381
I1
F7.0
sI2
F3.0
sI3
F2.0
sI5
F1.0
sI6
F4.0
sI7
F1.0
sI14
I0
sa(dp382
I1
F7.0
sI2
F4.0
sI3
F2.0
sI4
F1.0
sI5
F1.0
sI6
F4.0
sI7
F1.0
sI8
F3.0
sI14
I0
sa(dp383
I1
F7.0
sI2
F5.0
sI3
F2.0
sI4
F1.0
sI5
F1.0
sI6
F4.0
sI7
F1.0
sI8
F3.0
sI9
F5.0
sI14
I0
sa(dp384
I1
F7.0
sI2
F1.0
sI5
F2.0
sI14
I0
sa(dp385
I1
F7.0
sI2
F2.0
sI4
F1.0
sI5
F2.0
sI6
F5.0
sI14
I0
sa(dp386
I1
F7.0
sI2
F3.0
sI4
F2.0
sI5
F2.0
sI6
F5.0
sI7
F5.0
sI14
I0
sa(dp387
I1
F7.0
sI2
F4.0
sI4
F3.0
sI5
F2.0
sI6
F5.0
sI7
F5.0
sI8
F5.0
sI14
I0
sa(dp388
I1
F1.0
sI2
F1.0
sI5
F2.0
sI14
I0
sa(dp389
I1
F1.0
sI2
F2.0
sI3
F1.0
sI5
F2.0
sI6
F3.0
sI14
I0
sa(dp390
I1
F1.0
sI2
F3.0
sI3
F1.0
sI4
F1.0
sI5
F2.0
sI6
F3.0
sI7
F3.0
sI14
I0
sa(dp391
I1
F1.0
sI2
F4.0
sI3
F1.0
sI4
F2.0
sI5
F2.0
sI6
F3.0
sI7
F3.0
sI8
F3.0
sI14
I0
sa(dp392
I1
F1.0
sI2
F5.0
sI3
F1.0
sI4
F3.0
sI5
F2.0
sI6
F3.0
sI7
F3.0
sI8
F3.0
sI9
F3.0
sI14
I0
sa(dp393
I1
F1.0
sI2
F6.0
sI3
F2.0
sI4
F3.0
sI5
F2.0
sI6
F3.0
sI7
F3.0
sI8
F3.0
sI9
F3.0
sI10
F3.0
sI14
I0
sa(dp394
I1
F1.0
sI2
F1.0
sI5
F2.0
sI14
I0
sa(dp395
I1
F1.0
sI2
F2.0
sI4
F1.0
sI5
F2.0
sI6
F3.0
sI14
I0
sa(dp396
I1
F1.0
sI2
F3.0
sI3
F1.0
sI4
F1.0
sI5
F2.0
sI6
F3.0
sI7
F1.0
sI14
I0
sa(dp397
I1
F1.0
sI2
F1.0
sI5
F2.0
sI14
I0
sa(dp398
I1
F2.0
sI2
F1.0
sI5
F2.0
sI14
I0
sa(dp399
I1
F2.0
sI2
F4.0
sI3
F1.0
sI4
F2.0
sI5
F2.0
sI6
F1.0
sI7
F4.0
sI8
F4.0
sI14
I0
sa(dp400
I1
F2.0
sI2
F5.0
sI3
F1.0
sI4
F3.0
sI5
F2.0
sI6
F1.0
sI7
F4.0
sI8
F4.0
sI9
F1.0
sI14
I0
sa(dp401
I1
F2.0
sI2
F6.0
sI3
F2.0
sI4
F3.0
sI5
F2.0
sI6
F1.0
sI7
F4.0
sI8
F4.0
sI9
F1.0
sI10
F3.0
sI14
I0
sa(dp402
I1
F2.0
sI2
F1.0
sI5
F1.0
sI14
I0
sa(dp403
I1
F2.0
sI2
F2.0
sI4
F1.0
sI5
F1.0
sI6
F1.0
sI14
I0
sa(dp404
I1
F2.0
sI2
F3.0
sI4
F2.0
sI5
F1.0
sI6
F1.0
sI7
F3.0
sI14
I0
sa(dp405
I1
F2.0
sI2
F4.0
sI3
F1.0
sI4
F2.0
sI5
F1.0
sI6
F1.0
sI7
F3.0
sI8
F1.0
sI14
I0
sa(dp406
I1
F2.0
sI2
F1.0
sI5
F2.0
sI14
I0
sa(dp407
I1
F2.0
sI2
F2.0
sI4
F1.0
sI5
F2.0
sI6
F1.0
sI14
I0
sa(dp408
I1
F2.0
sI2
F3.0
sI4
F2.0
sI5
F2.0
sI6
F1.0
sI7
F5.0
sI14
I0
sa(dp409
I1
F2.0
sI2
F4.0
sI3
F1.0
sI4
F2.0
sI5
F2.0
sI6
F1.0
sI7
F5.0
sI8
F1.0
sI14
I0
sa(dp410
I1
F2.0
sI2
F5.0
sI3
F1.0
sI4
F3.0
sI5
F2.0
sI6
F1.0
sI7
F5.0
sI8
F1.0
sI9
F5.0
sI14
I0
sa(dp411
I1
F2.0
sI2
F1.0
sI5
F1.0
sI14
I0
sa(dp412
I1
F2.0
sI2
F2.0
sI3
F1.0
sI5
F1.0
sI6
F1.0
sI14
I0
sa(dp413
I1
F2.0
sI2
F3.0
sI3
F1.0
sI4
F1.0
sI5
F1.0
sI6
F1.0
sI7
F1.0
sI14
I0
sa(dp414
I1
F2.0
sI2
F1.0
sI5
F2.0
sI14
I0
sa(dp415
I1
F2.0
sI2
F2.0
sI3
F1.0
sI5
F2.0
sI6
F5.0
sI14
I0
sa(dp416
I1
F2.0
sI2
F3.0
sI3
F2.0
sI5
F2.0
sI6
F5.0
sI7
F5.0
sI14
I0
sa(dp417
I1
F3.0
sI2
F1.0
sI5
F2.0
sI14
I0
sa(dp418
I1
F3.0
sI2
F2.0
sI3
F1.0
sI5
F2.0
sI6
F1.0
sI14
I0
sa(dp419
I1
F3.0
sI2
F3.0
sI3
F2.0
sI5
F2.0
sI6
F1.0
sI7
F1.0
sI14
I0
sa(dp420
I1
F3.0
sI2
F5.0
sI3
F2.0
sI4
F1.0
sI5
F2.0
sI6
F1.0
sI7
F1.0
sI8
F3.0
sI9
F4.0
sI14
I0
sa(dp421
I1
F3.0
sI2
F6.0
sI3
F2.0
sI4
F2.0
sI5
F2.0
sI6
F1.0
sI7
F1.0
sI8
F3.0
sI9
F4.0
sI10
F1.0
sI14
I0
sa(dp422
I1
F3.0
sI2
F2.0
sI4
F1.0
sI5
F2.0
sI6
F4.0
sI14
I0
sa(dp423
I1
F3.0
sI2
F1.0
sI5
F2.0
sI14
I0
sa(dp424
I1
F3.0
sI2
F2.0
sI4
F1.0
sI5
F2.0
sI6
F3.0
sI14
I0
sa(dp425
I1
F3.0
sI2
F3.0
sI3
F1.0
sI4
F1.0
sI5
F2.0
sI6
F3.0
sI7
F1.0
sI14
I0
sa(dp426
I1
F4.0
sI2
F1.0
sI5
F2.0
sI14
I0
sa(dp427
I1
F4.0
sI2
F3.0
sI3
F1.0
sI4
F1.0
sI5
F2.0
sI6
F1.0
sI7
F4.0
sI14
I0
sa(dp428
I1
F4.0
sI2
F4.0
sI3
F2.0
sI4
F1.0
sI5
F2.0
sI6
F1.0
sI7
F4.0
sI8
F1.0
sI14
I0
sa(dp429
I1
F4.0
sI2
F1.0
sI5
F2.0
sI14
I0
sa(dp430
I1
F4.0
sI2
F4.0
sI3
F2.0
sI4
F1.0
sI5
F2.0
sI6
F1.0
sI7
F4.0
sI8
F4.0
sI14
I0
sa(dp431
I1
F4.0
sI2
F5.0
sI3
F2.0
sI4
F2.0
sI5
F2.0
sI6
F1.0
sI7
F4.0
sI8
F4.0
sI9
F2.0
sI14
I0
sa(dp432
I1
F4.0
sI2
F1.0
sI5
F1.0
sI14
I0
sa(dp433
I1
F4.0
sI2
F2.0
sI4
F1.0
sI5
F1.0
sI6
F1.0
sI14
I0
sa(dp434
I1
F5.0
sI2
F2.0
sI3
F1.0
sI5
F2.0
sI6
F4.0
sI14
I0
sa(dp435
I1
F5.0
sI2
F3.0
sI3
F2.0
sI5
F2.0
sI6
F4.0
sI7
F5.0
sI14
I0
sa(dp436
I1
F5.0
sI2
F6.0
sI3
F2.0
sI4
F3.0
sI5
F2.0
sI6
F4.0
sI7
F5.0
sI8
F1.0
sI9
F4.0
sI14
I0
sa(dp437
I1
F5.0
sI2
F1.0
sI5
F2.0
sI14
I0
sa(dp438
I1
F5.0
sI2
F2.0
sI3
F1.0
sI5
F2.0
sI6
F3.0
sI14
I0
sa(dp439
I1
F5.0
sI2
F3.0
sI3
F1.0
sI4
F1.0
sI5
F2.0
sI6
F3.0
sI7
F3.0
sI14
I0
sa(dp440
I1
F6.0
sI2
F1.0
sI5
F2.0
sI14
I0
sa(dp441
I1
F6.0
sI2
F2.0
sI4
F1.0
sI5
F2.0
sI6
F3.0
sI14
I0
sa(dp442
I1
F6.0
sI2
F3.0
sI4
F2.0
sI5
F2.0
sI6
F3.0
sI7
F5.0
sI14
I0
sa(dp443
I1
F6.0
sI2
F4.0
sI3
F1.0
sI4
F2.0
sI5
F2.0
sI6
F3.0
sI7
F5.0
sI8
F1.0
sI14
I0
sa(dp444
I1
F6.0
sI2
F1.0
sI5
F2.0
sI14
I0
sa(dp445
I1
F6.0
sI2
F2.0
sI4
F1.0
sI5
F2.0
sI6
F1.0
sI14
I0
sa(dp446
I1
F6.0
sI2
F4.0
sI3
F1.0
sI4
F2.0
sI5
F2.0
sI6
F1.0
sI7
F2.0
sI8
F4.0
sI14
I0
sa(dp447
I1
F6.0
sI2
F1.0
sI5
F1.0
sI14
I0
sa(dp448
I1
F6.0
sI2
F2.0
sI3
F1.0
sI5
F1.0
sI6
F3.0
sI14
I0
sa(dp449
I1
F6.0
sI2
F3.0
sI3
F2.0
sI5
F1.0
sI6
F3.0
sI7
F1.0
sI14
I0
sa(dp450
I1
F6.0
sI2
F4.0
sI3
F2.0
sI4
F1.0
sI5
F1.0
sI6
F3.0
sI7
F1.0
sI8
F3.0
sI14
I0
sa(dp451
I1
F7.0
sI2
F1.0
sI5
F2.0
sI14
I0
sa(dp452
I1
F7.0
sI2
F2.0
sI3
F1.0
sI5
F2.0
sI6
F1.0
sI14
I0
sa(dp453
I1
F7.0
sI2
F3.0
sI3
F2.0
sI5
F2.0
sI6
F1.0
sI7
F5.0
sI14
I0
sa(dp454
I1
F7.0
sI2
F4.0
sI3
F2.0
sI4
F1.0
sI5
F2.0
sI6
F1.0
sI7
F5.0
sI8
F1.0
sI14
I0
sa(dp455
I1
F7.0
sI2
F1.0
sI5
F1.0
sI14
I0
sa(dp456
I1
F7.0
sI2
F2.0
sI3
F1.0
sI5
F1.0
sI6
F1.0
sI14
I0
sa(dp457
I1
F7.0
sI2
F3.0
sI3
F2.0
sI5
F1.0
sI6
F1.0
sI7
F1.0
sI14
I0
sa(dp458
I1
F7.0
sI2
F4.0
sI3
F2.0
sI5
F1.0
sI6
F1.0
sI7
F1.0
sI8
F5.0
sI14
I0
sa(dp459
I1
F7.0
sI2
F5.0
sI3
F2.0
sI4
F1.0
sI5
F1.0
sI6
F1.0
sI7
F1.0
sI8
F5.0
sI9
F3.0
sI14
I0
sa(dp460
I1
F7.0
sI2
F6.0
sI3
F2.0
sI4
F2.0
sI5
F1.0
sI6
F1.0
sI7
F1.0
sI8
F5.0
sI9
F3.0
sI10
F2.0
sI14
I0
sa(dp461
I1
F7.0
sI2
F1.0
sI5
F2.0
sI14
I0
sa(dp462
I1
F7.0
sI2
F2.0
sI4
F1.0
sI5
F2.0
sI6
F1.0
sI14
I0
sa(dp463
I1
F7.0
sI2
F3.0
sI4
F2.0
sI5
F2.0
sI6
F1.0
sI7
F1.0
sI14
I0
sa(dp464
I1
F7.0
sI2
F4.0
sI3
F1.0
sI4
F2.0
sI5
F2.0
sI6
F1.0
sI7
F1.0
sI8
F1.0
sI14
I0
sa(dp465
I1
F7.0
sI2
F5.0
sI3
F2.0
sI4
F2.0
sI5
F2.0
sI6
F1.0
sI7
F1.0
sI8
F1.0
sI9
F1.0
sI14
I0
sa(dp466
I1
F7.0
sI2
F6.0
sI3
F2.0
sI4
F2.0
sI5
F2.0
sI6
F1.0
sI7
F1.0
sI8
F1.0
sI9
F1.0
sI10
F5.0
sI14
I0
sa(dp467
I1
F1.0
sI2
F1.0
sI5
F2.0
sI14
I0
sa(dp468
I1
F1.0
sI2
F2.0
sI4
F1.0
sI5
F2.0
sI6
F1.0
sI14
I0
sa(dp469
I1
F1.0
sI2
F3.0
sI4
F2.0
sI5
F2.0
sI6
F1.0
sI7
F1.0
sI14
I0
sa(dp470
I1
F1.0
sI2
F4.0
sI4
F3.0
sI5
F2.0
sI6
F1.0
sI7
F1.0
sI8
F1.0
sI14
I0
sa(dp471
I1
F1.0
sI2
F1.0
sI5
F2.0
sI14
I0
sa(dp472
I1
F1.0
sI2
F2.0
sI3
F1.0
sI5
F2.0
sI6
F1.0
sI14
I0
sa(dp473
I1
F1.0
sI2
F3.0
sI3
F2.0
sI5
F2.0
sI6
F1.0
sI7
F1.0
sI14
I0
sa(dp474
I1
F1.0
sI2
F1.0
sI5
F2.0
sI14
I0
sa(dp475
I1
F1.0
sI2
F3.0
sI3
F1.0
sI4
F1.0
sI5
F2.0
sI6
F1.0
sI7
F4.0
sI14
I0
sa(dp476
I1
F1.0
sI2
F4.0
sI3
F1.0
sI4
F2.0
sI5
F2.0
sI6
F1.0
sI7
F4.0
sI8
F5.0
sI14
I0
sa(dp477
I1
F1.0
sI2
F5.0
sI3
F2.0
sI4
F2.0
sI5
F2.0
sI6
F1.0
sI7
F4.0
sI8
F5.0
sI9
F5.0
sI14
I0
sa(dp478
I1
F1.0
sI2
F3.0
sI3
F1.0
sI4
F1.0
sI5
F2.0
sI6
F4.0
sI7
F4.0
sI14
I0
sa(dp479
I1
F1.0
sI2
F4.0
sI3
F1.0
sI4
F2.0
sI5
F2.0
sI6
F4.0
sI7
F4.0
sI8
F5.0
sI14
I0
sa(dp480
I1
F1.0
sI2
F5.0
sI3
F2.0
sI4
F2.0
sI5
F2.0
sI6
F4.0
sI7
F4.0
sI8
F5.0
sI9
F5.0
sI14
I0
sa(dp481
I1
F1.0
sI2
F1.0
sI5
F2.0
sI14
I0
sa(dp482
I1
F1.0
sI2
F2.0
sI4
F1.0
sI5
F2.0
sI6
F1.0
sI14
I0
sa(dp483
I1
F1.0
sI2
F3.0
sI3
F1.0
sI4
F1.0
sI5
F2.0
sI6
F1.0
sI7
F1.0
sI14
I0
sa(dp484
I1
F1.0
sI2
F4.0
sI3
F2.0
sI4
F1.0
sI5
F2.0
sI6
F1.0
sI7
F1.0
sI8
F5.0
sI14
I0
sa(dp485
I1
F2.0
sI2
F1.0
sI5
F1.0
sI14
I0
sa(dp486
I1
F2.0
sI2
F3.0
sI3
F1.0
sI4
F1.0
sI5
F1.0
sI6
F1.0
sI7
F4.0
sI14
I0
sa(dp487
I1
F2.0
sI2
F1.0
sI5
F2.0
sI14
I0
sa(dp488
I1
F2.0
sI2
F2.0
sI3
F1.0
sI5
F2.0
sI6
F1.0
sI14
I0
sa(dp489
I1
F2.0
sI2
F2.0
sI4
F1.0
sI5
F2.0
sI6
F4.0
sI14
I0
sa(dp490
I1
F2.0
sI2
F3.0
sI3
F1.0
sI4
F1.0
sI5
F2.0
sI6
F4.0
sI7
F5.0
sI14
I0
sa(dp491
I1
F2.0
sI2
F4.0
sI3
F2.0
sI4
F1.0
sI5
F2.0
sI6
F4.0
sI7
F5.0
sI8
F1.0
sI14
I0
sa(dp492
I1
F2.0
sI2
F7.0
sI3
F2.0
sI4
F2.0
sI5
F2.0
sI6
F4.0
sI7
F5.0
sI8
F1.0
sI9
F3.0
sI10
F4.0
sI11
F4.0
sI14
I0
sa(dp493
I1
F2.0
sI2
F8.0
sI3
F2.0
sI4
F2.0
sI5
F2.0
sI6
F4.0
sI7
F5.0
sI8
F1.0
sI9
F3.0
sI10
F4.0
sI11
F4.0
sI12
F3.0
sI14
I0
sa(dp494
I1
F2.0
sI2
F1.0
sI5
F1.0
sI14
I0
sa(dp495
I1
F2.0
sI2
F2.0
sI3
F1.0
sI5
F1.0
sI6
F1.0
sI14
I0
sa(dp496
I1
F2.0
sI2
F3.0
sI3
F1.0
sI4
F1.0
sI5
F1.0
sI6
F1.0
sI7
F1.0
sI14
I0
sa(dp497
I1
F2.0
sI2
F4.0
sI3
F1.0
sI4
F2.0
sI5
F1.0
sI6
F1.0
sI7
F1.0
sI8
F1.0
sI14
I0
sa(dp498
I1
F2.0
sI2
F5.0
sI3
F1.0
sI4
F3.0
sI5
F1.0
sI6
F1.0
sI7
F1.0
sI8
F1.0
sI9
F1.0
sI14
I0
sa(dp499
I1
F2.0
sI2
F6.0
sI3
F2.0
sI4
F3.0
sI5
F1.0
sI6
F1.0
sI7
F1.0
sI8
F1.0
sI9
F1.0
sI10
F2.0
sI14
I0
sa(dp500
I1
F2.0
sI2
F1.0
sI5
F2.0
sI14
I0
sa(dp501
I1
F2.0
sI2
F2.0
sI3
F1.0
sI5
F2.0
sI6
F1.0
sI14
I0
sa(dp502
I1
F2.0
sI2
F3.0
sI3
F1.0
sI4
F1.0
sI5
F2.0
sI6
F1.0
sI7
F1.0
sI14
I0
sa(dp503
I1
F3.0
sI2
F1.0
sI5
F2.0
sI14
I0
sa(dp504
I1
F3.0
sI2
F2.0
sI4
F1.0
sI5
F2.0
sI6
F5.0
sI14
I0
sa(dp505
I1
F3.0
sI2
F3.0
sI3
F1.0
sI4
F1.0
sI5
F2.0
sI6
F5.0
sI7
F1.0
sI14
I0
sa(dp506
I1
F3.0
sI2
F4.0
sI3
F1.0
sI4
F2.0
sI5
F2.0
sI6
F5.0
sI7
F1.0
sI8
F1.0
sI14
I0
sa(dp507
I1
F3.0
sI2
F5.0
sI3
F2.0
sI4
F2.0
sI5
F2.0
sI6
F5.0
sI7
F1.0
sI8
F1.0
sI9
F5.0
sI14
I0
sa(dp508
I1
F3.0
sI2
F2.0
sI3
F1.0
sI5
F2.0
sI6
F4.0
sI14
I0
sa(dp509
I1
F3.0
sI2
F4.0
sI3
F1.0
sI4
F2.0
sI5
F2.0
sI6
F4.0
sI7
F5.0
sI8
F4.0
sI14
I0
sa(dp510
I1
F3.0
sI2
F5.0
sI3
F1.0
sI4
F3.0
sI5
F2.0
sI6
F4.0
sI7
F5.0
sI8
F4.0
sI9
F1.0
sI14
I0
sa(dp511
I1
F3.0
sI2
F1.0
sI5
F2.0
sI14
I0
sa(dp512
I1
F3.0
sI2
F2.0
sI4
F1.0
sI5
F2.0
sI6
F5.0
sI14
I0
sa(dp513
I1
F3.0
sI2
F3.0
sI4
F2.0
sI5
F2.0
sI6
F5.0
sI7
F5.0
sI14
I0
sa(dp514
I1
F3.0
sI2
F4.0
sI3
F1.0
sI4
F2.0
sI5
F2.0
sI6
F5.0
sI7
F5.0
sI8
F1.0
sI14
I0
sa(dp515
I1
F3.0
sI2
F5.0
sI3
F2.0
sI4
F2.0
sI5
F2.0
sI6
F5.0
sI7
F5.0
sI8
F1.0
sI9
F1.0
sI14
I0
sa(dp516
I1
F3.0
sI2
F7.0
sI3
F2.0
sI4
F3.0
sI5
F2.0
sI6
F5.0
sI7
F5.0
sI8
F1.0
sI9
F1.0
sI10
F3.0
sI11
F4.0
sI14
I0
sa(dp517
I1
F3.0
sI2
F2.0
sI3
F1.0
sI5
F2.0
sI6
F4.0
sI14
I0
sa(dp518
I1
F3.0
sI2
F3.0
sI3
F1.0
sI4
F1.0
sI5
F2.0
sI6
F4.0
sI7
F1.0
sI14
I0
sa(dp519
I1
F3.0
sI2
F4.0
sI3
F2.0
sI4
F1.0
sI5
F2.0
sI6
F4.0
sI7
F1.0
sI8
F3.0
sI14
I0
sa(dp520
I1
F4.0
sI2
F2.0
sI3
F1.0
sI5
F1.0
sI6
F4.0
sI14
I0
sa(dp521
I1
F4.0
sI2
F3.0
sI3
F1.0
sI4
F1.0
sI5
F1.0
sI6
F4.0
sI7
F1.0
sI14
I0
sa(dp522
I1
F4.0
sI2
F4.0
sI3
F2.0
sI4
F1.0
sI5
F1.0
sI6
F4.0
sI7
F1.0
sI8
F5.0
sI14
I0
sa(dp523
I1
F4.0
sI2
F6.0
sI3
F2.0
sI4
F2.0
sI5
F1.0
sI6
F4.0
sI7
F1.0
sI8
F5.0
sI9
F3.0
sI10
F4.0
sI14
I0
sa(dp524
I1
F4.0
sI2
F7.0
sI3
F2.0
sI4
F2.0
sI5
F1.0
sI6
F4.0
sI7
F1.0
sI8
F5.0
sI9
F3.0
sI10
F4.0
sI11
F1.0
sI14
I0
sa(dp525
I1
F4.0
sI2
F8.0
sI3
F2.0
sI4
F2.0
sI5
F1.0
sI6
F4.0
sI7
F1.0
sI8
F5.0
sI9
F3.0
sI10
F4.0
sI11
F1.0
sI12
F5.0
sI14
I0
sa(dp526
I1
F4.0
sI2
F1.0
sI5
F2.0
sI14
I0
sa(dp527
I1
F4.0
sI2
F2.0
sI4
F1.0
sI5
F2.0
sI6
F5.0
sI14
I0
sa(dp528
I1
F4.0
sI2
F3.0
sI3
F1.0
sI4
F1.0
sI5
F2.0
sI6
F5.0
sI7
F5.0
sI14
I0
sa(dp529
I1
F4.0
sI2
F4.0
sI3
F2.0
sI4
F1.0
sI5
F2.0
sI6
F5.0
sI7
F5.0
sI8
F1.0
sI14
I0
sa(dp530
I1
F4.0
sI2
F5.0
sI3
F2.0
sI4
F2.0
sI5
F2.0
sI6
F5.0
sI7
F5.0
sI8
F1.0
sI9
F1.0
sI14
I0
sa(dp531
I1
F4.0
sI2
F1.0
sI5
F2.0
sI14
I0
sa(dp532
I1
F4.0
sI2
F1.0
sI5
F1.0
sI14
I0
sa(dp533
I1
F4.0
sI2
F2.0
sI3
F1.0
sI5
F1.0
sI6
F1.0
sI14
I0
sa(dp534
I1
F4.0
sI2
F3.0
sI3
F2.0
sI5
F1.0
sI6
F1.0
sI7
F1.0
sI14
I0
sa(dp535
I1
F5.0
sI2
F3.0
sI3
F1.0
sI4
F1.0
sI5
F2.0
sI6
F4.0
sI7
F4.0
sI14
I0
sa(dp536
I1
F5.0
sI2
F4.0
sI3
F1.0
sI4
F2.0
sI5
F2.0
sI6
F4.0
sI7
F4.0
sI8
F5.0
sI14
I0
sa(dp537
I1
F5.0
sI2
F2.0
sI4
F1.0
sI5
F2.0
sI6
F4.0
sI14
I0
sa(dp538
I1
F5.0
sI2
F1.0
sI5
F2.0
sI14
I0
sa(dp539
I1
F6.0
sI2
F2.0
sI3
F1.0
sI5
F2.0
sI6
F4.0
sI14
I0
sa(dp540
I1
F6.0
sI2
F4.0
sI3
F2.0
sI4
F1.0
sI5
F2.0
sI6
F4.0
sI7
F5.0
sI8
F4.0
sI14
I0
sa(dp541
I1
F6.0
sI2
F1.0
sI5
F2.0
sI14
I0
sa(dp542
I1
F6.0
sI2
F2.0
sI3
F1.0
sI5
F2.0
sI6
F5.0
sI14
I0
sa(dp543
I1
F6.0
sI2
F1.0
sI5
F1.0
sI14
I0
sa(dp544
I1
F6.0
sI2
F2.0
sI4
F1.0
sI5
F1.0
sI6
F5.0
sI14
I0
sa(dp545
I1
F7.0
sI2
F1.0
sI5
F2.0
sI14
I0
sa(dp546
I1
F7.0
sI2
F1.0
sI5
F2.0
sI14
I0
sa(dp547
I1
F7.0
sI2
F1.0
sI5
F1.0
sI14
I0
sa(dp548
I1
F7.0
sI2
F2.0
sI3
F1.0
sI5
F1.0
sI6
F1.0
sI14
I0
sa(dp549
I1
F7.0
sI2
F1.0
sI5
F2.0
sI14
I0
sa(dp550
I1
F1.0
sI2
F1.0
sI5
F2.0
sI14
I0
sa(dp551
I1
F1.0
sI2
F2.0
sI4
F1.0
sI5
F2.0
sI6
F1.0
sI14
I0
sa(dp552
I1
F1.0
sI2
F3.0
sI4
F2.0
sI5
F2.0
sI6
F1.0
sI7
F1.0
sI14
I0
sa(dp553
I1
F1.0
sI2
F4.0
sI3
F1.0
sI4
F2.0
sI5
F2.0
sI6
F1.0
sI7
F1.0
sI8
F1.0
sI14
I0
sa(dp554
I1
F1.0
sI2
F5.0
sI3
F1.0
sI4
F3.0
sI5
F2.0
sI6
F1.0
sI7
F1.0
sI8
F1.0
sI9
F3.0
sI14
I0
sa(dp555
I1
F1.0
sI2
F1.0
sI5
F2.0
sI14
I0
sa(dp556
I1
F1.0
sI2
F2.0
sI4
F1.0
sI5
F2.0
sI6
F3.0
sI14
I0
sa(dp557
I1
F1.0
sI2
F3.0
sI3
F1.0
sI4
F1.0
sI5
F2.0
sI6
F3.0
sI7
F2.0
sI14
I0
sa(dp558
I1
F1.0
sI2
F1.0
sI5
F2.0
sI14
I0
sa(dp559
I1
F1.0
sI2
F2.0
sI4
F1.0
sI5
F2.0
sI6
F1.0
sI14
I0
sa(dp560
I1
F1.0
sI2
F3.0
sI4
F2.0
sI5
F2.0
sI6
F1.0
sI7
F5.0
sI14
I0
sa(dp561
I1
F1.0
sI2
F4.0
sI3
F1.0
sI4
F2.0
sI5
F2.0
sI6
F1.0
sI7
F5.0
sI8
F1.0
sI14
I0
sa(dp562
I1
F2.0
sI2
F1.0
sI5
F1.0
sI14
I0
sa(dp563
I1
F2.0
sI2
F2.0
sI4
F1.0
sI5
F1.0
sI6
F1.0
sI14
I0
sa(dp564
I1
F2.0
sI2
F3.0
sI3
F1.0
sI4
F1.0
sI5
F1.0
sI6
F1.0
sI7
F2.0
sI14
I0
sa(dp565
I1
F2.0
sI2
F4.0
sI3
F2.0
sI4
F1.0
sI5
F1.0
sI6
F1.0
sI7
F2.0
sI8
F2.0
sI14
I0
sa(dp566
I1
F2.0
sI2
F1.0
sI5
F2.0
sI14
I0
sa(dp567
I1
F2.0
sI2
F2.0
sI4
F1.0
sI5
F2.0
sI6
F1.0
sI14
I0
sa(dp568
I1
F2.0
sI2
F3.0
sI4
F2.0
sI5
F2.0
sI6
F1.0
sI7
F3.0
sI14
I0
sa(dp569
I1
F2.0
sI2
F1.0
sI5
F1.0
sI14
I0
sa(dp570
I1
F2.0
sI2
F2.0
sI3
F1.0
sI5
F1.0
sI6
F1.0
sI14
I0
sa(dp571
I1
F2.0
sI2
F3.0
sI3
F2.0
sI5
F1.0
sI6
F1.0
sI7
F1.0
sI14
I0
sa(dp572
I1
F2.0
sI2
F2.0
sI3
F1.0
sI5
F2.0
sI6
F4.0
sI14
I0
sa(dp573
I1
F2.0
sI2
F1.0
sI5
F1.0
sI14
I0
sa(dp574
I1
F2.0
sI2
F2.0
sI4
F1.0
sI5
F1.0
sI6
F2.0
sI14
I0
sa(dp575
I1
F2.0
sI2
F3.0
sI4
F2.0
sI5
F1.0
sI6
F2.0
sI7
F1.0
sI14
I0
sa(dp576
I1
F2.0
sI2
F4.0
sI4
F3.0
sI5
F1.0
sI6
F2.0
sI7
F1.0
sI8
F2.0
sI14
I0
sa(dp577
I1
F2.0
sI2
F5.0
sI3
F1.0
sI4
F3.0
sI5
F1.0
sI6
F2.0
sI7
F1.0
sI8
F2.0
sI9
F1.0
sI14
I0
sa(dp578
I1
F2.0
sI2
F6.0
sI3
F2.0
sI4
F3.0
sI5
F1.0
sI6
F2.0
sI7
F1.0
sI8
F2.0
sI9
F1.0
sI10
F5.0
sI14
I0
sa(dp579
I1
F3.0
sI2
F1.0
sI5
F2.0
sI14
I0
sa(dp580
I1
F3.0
sI2
F3.0
sI3
F2.0
sI5
F2.0
sI6
F1.0
sI7
F4.0
sI14
I0
sa(dp581
I1
F3.0
sI2
F4.0
sI3
F2.0
sI4
F1.0
sI5
F2.0
sI6
F1.0
sI7
F4.0
sI8
F3.0
sI14
I0
sa(dp582
I1
F3.0
sI2
F1.0
sI5
F2.0
sI14
I0
sa(dp583
I1
F3.0
sI2
F2.0
sI3
F1.0
sI5
F2.0
sI6
F5.0
sI14
I0
sa(dp584
I1
F3.0
sI2
F2.0
sI4
F1.0
sI5
F2.0
sI6
F4.0
sI14
I0
sa(dp585
I1
F3.0
sI2
F3.0
sI4
F2.0
sI5
F2.0
sI6
F4.0
sI7
F3.0
sI14
I0
sa(dp586
I1
F3.0
sI2
F4.0
sI4
F3.0
sI5
F2.0
sI6
F4.0
sI7
F3.0
sI8
F5.0
sI14
I0
sa(dp587
I1
F3.0
sI2
F1.0
sI5
F2.0
sI14
I0
sa(dp588
I1
F3.0
sI2
F2.0
sI4
F1.0
sI5
F2.0
sI6
F5.0
sI14
I0
sa(dp589
I1
F3.0
sI2
F3.0
sI4
F2.0
sI5
F2.0
sI6
F5.0
sI7
F2.0
sI14
I0
sa(dp590
I1
F3.0
sI2
F4.0
sI3
F1.0
sI4
F2.0
sI5
F2.0
sI6
F5.0
sI7
F2.0
sI8
F5.0
sI14
I0
sa(dp591
I1
F3.0
sI2
F5.0
sI3
F2.0
sI4
F2.0
sI5
F2.0
sI6
F5.0
sI7
F2.0
sI8
F5.0
sI9
F3.0
sI14
I0
sa(dp592
I1
F3.0
sI2
F7.0
sI3
F2.0
sI4
F3.0
sI5
F2.0
sI6
F5.0
sI7
F2.0
sI8
F5.0
sI9
F3.0
sI10
F3.0
sI11
F4.0
sI14
I0
sa(dp593
I1
F3.0
sI2
F1.0
sI5
F1.0
sI14
I0
sa(dp594
I1
F3.0
sI2
F2.0
sI3
F1.0
sI5
F1.0
sI6
F1.0
sI14
I0
sa(dp595
I1
F3.0
sI2
F3.0
sI4
F2.0
sI5
F2.0
sI6
F4.0
sI7
F4.0
sI14
I0
sa(dp596
I1
F3.0
sI2
F5.0
sI3
F2.0
sI4
F2.0
sI5
F2.0
sI6
F4.0
sI7
F4.0
sI8
F3.0
sI9
F4.0
sI14
I0
sa(dp597
I1
F3.0
sI2
F6.0
sI3
F2.0
sI4
F2.0
sI5
F2.0
sI6
F4.0
sI7
F4.0
sI8
F3.0
sI9
F4.0
sI10
F3.0
sI14
I0
sa(dp598
I1
F4.0
sI2
F1.0
sI5
F1.0
sI14
I0
sa(dp599
I1
F4.0
sI2
F2.0
sI3
F1.0
sI5
F1.0
sI6
F1.0
sI14
I0
sa(dp600
I1
F4.0
sI2
F3.0
sI3
F1.0
sI4
F1.0
sI5
F2.0
sI6
F4.0
sI7
F4.0
sI14
I0
sa(dp601
I1
F4.0
sI2
F4.0
sI3
F1.0
sI4
F2.0
sI5
F2.0
sI6
F4.0
sI7
F4.0
sI8
F3.0
sI14
I0
sa(dp602
I1
F4.0
sI2
F6.0
sI3
F2.0
sI4
F3.0
sI5
F2.0
sI6
F4.0
sI7
F4.0
sI8
F3.0
sI9
F1.0
sI10
F4.0
sI14
I0
sa(dp603
I1
F4.0
sI2
F1.0
sI5
F1.0
sI14
I0
sa(dp604
I1
F4.0
sI2
F2.0
sI3
F1.0
sI5
F1.0
sI6
F1.0
sI14
I0
sa(dp605
I1
F4.0
sI2
F3.0
sI3
F1.0
sI4
F1.0
sI5
F1.0
sI6
F1.0
sI7
F5.0
sI14
I0
sa(dp606
I1
F4.0
sI2
F4.0
sI3
F2.0
sI4
F1.0
sI5
F1.0
sI6
F1.0
sI7
F5.0
sI8
F2.0
sI14
I0
sa(dp607
I1
F4.0
sI2
F5.0
sI3
F2.0
sI4
F2.0
sI5
F1.0
sI6
F1.0
sI7
F5.0
sI8
F2.0
sI9
F1.0
sI14
I0
sa(dp608
I1
F5.0
sI2
F1.0
sI5
F2.0
sI14
I0
sa(dp609
I1
F5.0
sI2
F2.0
sI4
F1.0
sI5
F2.0
sI6
F3.0
sI14
I0
sa(dp610
I1
F5.0
sI2
F3.0
sI3
F1.0
sI4
F1.0
sI5
F2.0
sI6
F3.0
sI7
F3.0
sI14
I0
sa(dp611
I1
F5.0
sI2
F4.0
sI3
F1.0
sI4
F2.0
sI5
F2.0
sI6
F3.0
sI7
F3.0
sI8
F5.0
sI14
I0
sa(dp612
I1
F5.0
sI2
F5.0
sI3
F2.0
sI4
F2.0
sI5
F2.0
sI6
F3.0
sI7
F3.0
sI8
F5.0
sI9
F5.0
sI14
I0
sa(dp613
I1
F5.0
sI2
F6.0
sI3
F2.0
sI4
F3.0
sI5
F2.0
sI6
F3.0
sI7
F3.0
sI8
F5.0
sI9
F5.0
sI10
F1.0
sI14
I0
sa(dp614
I1
F5.0
sI2
F1.0
sI5
F2.0
sI14
I0
sa(dp615
I1
F5.0
sI2
F2.0
sI3
F1.0
sI5
F2.0
sI6
F3.0
sI14
I0
sa(dp616
I1
F5.0
sI2
F3.0
sI3
F2.0
sI5
F2.0
sI6
F3.0
sI7
F2.0
sI14
I0
sa(dp617
I1
F5.0
sI2
F4.0
sI3
F2.0
sI4
F1.0
sI5
F2.0
sI6
F3.0
sI7
F2.0
sI8
F1.0
sI14
I0
sa(dp618
I1
F5.0
sI2
F5.0
sI3
F2.0
sI4
F2.0
sI5
F2.0
sI6
F3.0
sI7
F2.0
sI8
F1.0
sI9
F5.0
sI14
I0
sa(dp619
I1
F5.0
sI2
F1.0
sI5
F2.0
sI14
I0
sa(dp620
I1
F5.0
sI2
F1.0
sI5
F2.0
sI14
I0
sa(dp621
I1
F5.0
sI2
F2.0
sI4
F1.0
sI5
F2.0
sI6
F1.0
sI14
I0
sa(dp622
I1
F5.0
sI2
F3.0
sI4
F2.0
sI5
F2.0
sI6
F1.0
sI7
F1.0
sI14
I0
sa(dp623
I1
F5.0
sI2
F4.0
sI3
F1.0
sI4
F2.0
sI5
F2.0
sI6
F1.0
sI7
F1.0
sI8
F1.0
sI14
I0
sa(dp624
I1
F5.0
sI2
F5.0
sI3
F1.0
sI4
F3.0
sI5
F2.0
sI6
F1.0
sI7
F1.0
sI8
F1.0
sI9
F5.0
sI14
I0
sa(dp625
I1
F5.0
sI2
F1.0
sI5
F1.0
sI14
I0
sa(dp626
I1
F5.0
sI2
F2.0
sI3
F1.0
sI5
F1.0
sI6
F2.0
sI14
I0
sa(dp627
I1
F5.0
sI2
F3.0
sI3
F1.0
sI4
F1.0
sI5
F1.0
sI6
F2.0
sI7
F2.0
sI14
I0
sa(dp628
I1
F5.0
sI2
F2.0
sI3
F1.0
sI5
F2.0
sI6
F4.0
sI14
I0
sa(dp629
I1
F5.0
sI2
F4.0
sI3
F2.0
sI4
F1.0
sI5
F2.0
sI6
F4.0
sI7
F1.0
sI8
F4.0
sI14
I0
sa(dp630
I1
F5.0
sI2
F5.0
sI3
F2.0
sI4
F2.0
sI5
F2.0
sI6
F4.0
sI7
F1.0
sI8
F4.0
sI9
F3.0
sI14
I0
sa(dp631
I1
F6.0
sI2
F1.0
sI5
F1.0
sI14
I0
sa(dp632
I1
F6.0
sI2
F2.0
sI3
F1.0
sI5
F1.0
sI6
F3.0
sI14
I0
sa(dp633
I1
F6.0
sI2
F1.0
sI5
F2.0
sI14
I0
sa(dp634
I1
F6.0
sI2
F2.0
sI4
F1.0
sI5
F2.0
sI6
F2.0
sI14
I0
sa(dp635
I1
F6.0
sI2
F3.0
sI3
F1.0
sI4
F1.0
sI5
F2.0
sI6
F2.0
sI7
F1.0
sI14
I0
sa(dp636
I1
F6.0
sI2
F1.0
sI5
F1.0
sI14
I0
sa(dp637
I1
F6.0
sI2
F2.0
sI4
F1.0
sI5
F1.0
sI6
F1.0
sI14
I0
sa(dp638
I1
F6.0
sI2
F3.0
sI3
F1.0
sI4
F1.0
sI5
F1.0
sI6
F1.0
sI7
F1.0
sI14
I0
sa(dp639
I1
F6.0
sI2
F4.0
sI3
F2.0
sI4
F1.0
sI5
F1.0
sI6
F1.0
sI7
F1.0
sI8
F5.0
sI14
I0
sa(dp640
I1
F7.0
sI2
F1.0
sI5
F2.0
sI14
I0
sa(dp641
I1
F7.0
sI2
F2.0
sI4
F1.0
sI5
F2.0
sI6
F1.0
sI14
I0
sa(dp642
I1
F7.0
sI2
F1.0
sI5
F2.0
sI14
I0
sa(dp643
I1
F7.0
sI2
F2.0
sI3
F1.0
sI5
F2.0
sI6
F1.0
sI14
I0
sa(dp644
I1
F7.0
sI2
F3.0
sI3
F2.0
sI5
F2.0
sI6
F1.0
sI7
F5.0
sI14
I0
sa(dp645
I1
F7.0
sI2
F4.0
sI3
F2.0
sI4
F1.0
sI5
F2.0
sI6
F1.0
sI7
F5.0
sI8
F2.0
sI14
I0
sa(dp646
I1
F7.0
sI2
F1.0
sI5
F2.0
sI14
I0
sa(dp647
I1
F7.0
sI2
F2.0
sI3
F1.0
sI5
F2.0
sI6
F3.0
sI14
I0
sa(dp648
I1
F7.0
sI2
F3.0
sI3
F1.0
sI4
F1.0
sI5
F2.0
sI6
F3.0
sI7
F2.0
sI14
I0
sa(dp649
I1
F7.0
sI2
F4.0
sI3
F1.0
sI4
F2.0
sI5
F2.0
sI6
F3.0
sI7
F2.0
sI8
F3.0
sI14
I0
sa(dp650
I1
F1.0
sI2
F1.0
sI5
F1.0
sI14
I0
sa(dp651
I1
F1.0
sI2
F2.0
sI4
F1.0
sI5
F1.0
sI6
F1.0
sI14
I0
sa(dp652
I1
F1.0
sI2
F3.0
sI3
F1.0
sI4
F1.0
sI5
F1.0
sI6
F1.0
sI7
F1.0
sI14
I0
sa(dp653
I1
F1.0
sI2
F4.0
sI3
F1.0
sI4
F2.0
sI5
F1.0
sI6
F1.0
sI7
F1.0
sI8
F1.0
sI14
I0
sa(dp654
I1
F1.0
sI2
F1.0
sI5
F1.0
sI14
I0
sa(dp655
I1
F1.0
sI2
F2.0
sI3
F1.0
sI5
F2.0
sI6
F3.0
sI14
I1
sa(dp656
I1
F2.0
sI2
F1.0
sI5
F1.0
sI14
I1
sa(dp657
I1
F3.0
sI2
F1.0
sI5
F1.0
sI14
I1
sa(dp658
I1
F3.0
sI2
F1.0
sI5
F1.0
sI14
I1
sa(dp659
I1
F3.0
sI2
F5.0
sI3
F2.0
sI4
F2.0
sI5
F2.0
sI6
F5.0
sI7
F5.0
sI8
F1.0
sI9
F1.0
sI14
I1
sa(dp660
I1
F4.0
sI2
F1.0
sI5
F2.0
sI14
I1
sa(dp661
I1
F4.0
sI2
F2.0
sI3
F1.0
sI5
F2.0
sI6
F1.0
sI14
I1
sa(dp662
I1
F4.0
sI2
F4.0
sI3
F2.0
sI5
F2.0
sI6
F1.0
sI7
F4.0
sI8
F2.0
sI14
I1
sa(dp663
I1
F5.0
sI2
F5.0
sI3
F2.0
sI4
F2.0
sI5
F1.0
sI6
F2.0
sI7
F1.0
sI8
F1.0
sI9
F5.0
sI14
I1
sa(dp664
I1
F6.0
sI2
F6.0
sI3
F2.0
sI4
F2.0
sI5
F2.0
sI6
F5.0
sI7
F5.0
sI8
F1.0
sI9
F3.0
sI10
F1.0
sI14
I1
sa(dp665
I1
F6.0
sI2
F3.0
sI3
F1.0
sI4
F1.0
sI5
F1.0
sI6
F1.0
sI7
F2.0
sI14
I1
sa(dp666
I1
F1.0
sI2
F5.0
sI3
F2.0
sI4
F2.0
sI5
F1.0
sI6
F1.0
sI7
F2.0
sI8
F1.0
sI9
F1.0
sI14
I1
sa(dp667
I1
F2.0
sI2
F3.0
sI3
F1.0
sI4
F1.0
sI5
F2.0
sI6
F1.0
sI7
F1.0
sI14
I1
sa(dp668
I1
F2.0
sI2
F4.0
sI3
F2.0
sI4
F1.0
sI5
F2.0
sI6
F1.0
sI7
F1.0
sI8
F4.0
sI14
I1
sa(dp669
I1
F3.0
sI2
F2.0
sI3
F1.0
sI5
F1.0
sI6
F3.0
sI14
I1
sa(dp670
I1
F4.0
sI2
F1.0
sI5
F1.0
sI14
I1
sa(dp671
I1
F4.0
sI2
F3.0
sI3
F1.0
sI4
F1.0
sI5
F1.0
sI6
F3.0
sI7
F3.0
sI14
I1
sa(dp672
I1
F4.0
sI2
F4.0
sI3
F2.0
sI4
F1.0
sI5
F1.0
sI6
F3.0
sI7
F5.0
sI8
F1.0
sI14
I1
sa(dp673
I1
F4.0
sI2
F6.0
sI3
F2.0
sI4
F2.0
sI5
F1.0
sI6
F3.0
sI7
F5.0
sI8
F1.0
sI9
F4.0
sI10
F1.0
sI14
I1
sa(dp674
I1
F5.0
sI2
F2.0
sI3
F1.0
sI5
F1.0
sI6
F2.0
sI14
I1
sa(dp675
I1
F5.0
sI2
F4.0
sI3
F2.0
sI4
F1.0
sI5
F2.0
sI6
F1.0
sI7
F1.0
sI8
F1.0
sI14
I1
sa(dp676
I1
F6.0
sI2
F1.0
sI5
F1.0
sI14
I1
sa(dp677
I1
F3.0
sI2
F1.0
sI5
F1.0
sI14
I1
sa(dp678
I1
F4.0
sI2
F1.0
sI5
F1.0
sI14
I1
sa(dp679
I1
F4.0
sI2
F1.0
sI5
F2.0
sI14
I1
sa(dp680
I1
F5.0
sI2
F2.0
sI3
F1.0
sI5
F2.0
sI6
F1.0
sI14
I1
sa(dp681
I1
F1.0
sI2
F3.0
sI3
F1.0
sI4
F1.0
sI5
F2.0
sI6
F1.0
sI7
F3.0
sI14
I1
sa(dp682
I1
F3.0
sI2
F1.0
sI5
F1.0
sI14
I1
sa(dp683
I1
F4.0
sI2
F1.0
sI5
F1.0
sI14
I1
sa(dp684
I1
F4.0
sI2
F4.0
sI3
F2.0
sI5
F2.0
sI6
F1.0
sI7
F2.0
sI8
F3.0
sI14
I1
sa(dp685
I1
F6.0
sI2
F7.0
sI3
F2.0
sI4
F1.0
sI5
F1.0
sI6
F5.0
sI7
F1.0
sI8
F1.0
sI9
F3.0
sI10
F1.0
sI11
F2.0
sI14
I1
sa(dp686
I1
F6.0
sI2
F4.0
sI3
F1.0
sI4
F2.0
sI5
F2.0
sI6
F1.0
sI7
F1.0
sI8
F1.0
sI14
I1
sa(dp687
I1
F7.0
sI2
F1.0
sI5
F1.0
sI14
I1
sa(dp688
I1
F7.0
sI2
F6.0
sI3
F2.0
sI4
F1.0
sI5
F1.0
sI6
F4.0
sI7
F1.0
sI8
F3.0
sI9
F5.0
sI10
F3.0
sI14
I1
sa(dp689
I1
F1.0
sI2
F4.0
sI3
F2.0
sI4
F1.0
sI5
F2.0
sI6
F3.0
sI7
F1.0
sI8
F1.0
sI14
I1
sa(dp690
I1
F2.0
sI2
F2.0
sI3
F1.0
sI5
F2.0
sI6
F1.0
sI14
I1
sa(dp691
I1
F2.0
sI2
F3.0
sI3
F1.0
sI4
F1.0
sI5
F2.0
sI6
F1.0
sI7
F4.0
sI14
I1
sa(dp692
I1
F3.0
sI2
F4.0
sI3
F2.0
sI4
F1.0
sI5
F2.0
sI6
F1.0
sI7
F1.0
sI8
F3.0
sI14
I1
sa(dp693
I1
F3.0
sI2
F1.0
sI5
F2.0
sI14
I1
sa(dp694
I1
F4.0
sI2
F2.0
sI3
F1.0
sI5
F2.0
sI6
F1.0
sI14
I1
sa(dp695
I1
F4.0
sI2
F2.0
sI3
F1.0
sI5
F2.0
sI6
F1.0
sI14
I1
sa(dp696
I1
F4.0
sI2
F3.0
sI3
F1.0
sI4
F1.0
sI5
F2.0
sI6
F1.0
sI7
F4.0
sI14
I1
sa(dp697
I1
F5.0
sI2
F1.0
sI5
F2.0
sI14
I1
sa(dp698
I1
F5.0
sI2
F4.0
sI3
F2.0
sI4
F1.0
sI5
F2.0
sI6
F4.0
sI7
F5.0
sI8
F1.0
sI14
I1
sa(dp699
I1
F6.0
sI2
F1.0
sI5
F2.0
sI14
I1
sa(dp700
I1
F6.0
sI2
F2.0
sI3
F1.0
sI5
F2.0
sI6
F4.0
sI14
I1
sa(dp701
I1
F6.0
sI2
F3.0
sI3
F1.0
sI4
F1.0
sI5
F2.0
sI6
F1.0
sI7
F2.0
sI14
I1
sa(dp702
I1
F1.0
sI2
F2.0
sI3
F1.0
sI5
F2.0
sI6
F1.0
sI14
I1
sa(dp703
I1
F1.0
sI2
F1.0
sI5
F2.0
sI14
I1
sa(dp704
I1
F1.0
sI2
F2.0
sI4
F1.0
sI5
F2.0
sI6
F4.0
sI14
I1
sa(dp705
I1
F2.0
sI2
F2.0
sI3
F1.0
sI5
F1.0
sI6
F1.0
sI14
I1
sa(dp706
I1
F2.0
sI2
F1.0
sI5
F2.0
sI14
I1
sa(dp707
I1
F2.0
sI2
F5.0
sI3
F2.0
sI4
F1.0
sI5
F2.0
sI6
F4.0
sI7
F5.0
sI8
F1.0
sI9
F3.0
sI14
I1
sa(dp708
I1
F2.0
sI2
F6.0
sI3
F2.0
sI4
F1.0
sI5
F2.0
sI6
F4.0
sI7
F5.0
sI8
F1.0
sI9
F3.0
sI10
F4.0
sI14
I1
sa(dp709
I1
F3.0
sI2
F1.0
sI5
F2.0
sI14
I1
sa(dp710
I1
F3.0
sI2
F3.0
sI3
F1.0
sI4
F1.0
sI5
F2.0
sI6
F4.0
sI7
F5.0
sI14
I1
sa(dp711
I1
F3.0
sI2
F6.0
sI3
F2.0
sI4
F2.0
sI5
F2.0
sI6
F5.0
sI7
F5.0
sI8
F1.0
sI9
F1.0
sI10
F3.0
sI14
I1
sa(dp712
I1
F3.0
sI2
F1.0
sI5
F2.0
sI14
I1
sa(dp713
I1
F4.0
sI2
F1.0
sI5
F1.0
sI14
I1
sa(dp714
I1
F4.0
sI2
F5.0
sI3
F2.0
sI4
F1.0
sI5
F1.0
sI6
F4.0
sI7
F1.0
sI8
F5.0
sI9
F3.0
sI14
I1
sa(dp715
I1
F5.0
sI2
F1.0
sI5
F2.0
sI14
I1
sa(dp716
I1
F5.0
sI2
F2.0
sI3
F1.0
sI5
F2.0
sI6
F4.0
sI14
I1
sa(dp717
I1
F5.0
sI2
F1.0
sI5
F2.0
sI14
I1
sa(dp718
I1
F6.0
sI2
F1.0
sI5
F2.0
sI14
I1
sa(dp719
I1
F6.0
sI2
F3.0
sI3
F1.0
sI4
F1.0
sI5
F2.0
sI6
F4.0
sI7
F5.0
sI14
I1
sa(dp720
I1
F6.0
sI2
F3.0
sI3
F1.0
sI4
F1.0
sI5
F1.0
sI6
F5.0
sI7
F5.0
sI14
I1
sa(dp721
I1
F2.0
sI2
F1.0
sI5
F2.0
sI14
I1
sa(dp722
I1
F3.0
sI2
F2.0
sI3
F1.0
sI5
F2.0
sI6
F1.0
sI14
I1
sa(dp723
I1
F3.0
sI2
F1.0
sI5
F2.0
sI14
I1
sa(dp724
I1
F3.0
sI2
F6.0
sI3
F2.0
sI4
F2.0
sI5
F2.0
sI6
F5.0
sI7
F2.0
sI8
F5.0
sI9
F3.0
sI10
F3.0
sI14
I1
sa(dp725
I1
F3.0
sI2
F1.0
sI5
F2.0
sI14
I1
sa(dp726
I1
F3.0
sI2
F2.0
sI4
F1.0
sI5
F2.0
sI6
F4.0
sI14
I1
sa(dp727
I1
F3.0
sI2
F4.0
sI3
F1.0
sI4
F2.0
sI5
F2.0
sI6
F4.0
sI7
F4.0
sI8
F3.0
sI14
I1
sa(dp728
I1
F4.0
sI2
F1.0
sI5
F2.0
sI14
I1
sa(dp729
I1
F4.0
sI2
F2.0
sI3
F1.0
sI5
F2.0
sI6
F4.0
sI14
I1
sa(dp730
I1
F4.0
sI2
F5.0
sI3
F2.0
sI4
F2.0
sI5
F2.0
sI6
F4.0
sI7
F4.0
sI8
F3.0
sI9
F1.0
sI14
I1
sa(dp731
I1
F5.0
sI2
F2.0
sI3
F1.0
sI5
F2.0
sI6
F2.0
sI14
I1
sa(dp732
I1
F5.0
sI2
F3.0
sI3
F1.0
sI4
F1.0
sI5
F2.0
sI6
F2.0
sI7
F4.0
sI14
I1
sa(dp733
I1
F5.0
sI2
F1.0
sI5
F2.0
sI14
I1
sa(dp734
I1
F5.0
sI2
F3.0
sI3
F1.0
sI4
F1.0
sI5
F2.0
sI6
F4.0
sI7
F1.0
sI14
I1
sa(dp735
I1
F5.0
sI2
F6.0
sI3
F2.0
sI4
F2.0
sI5
F2.0
sI6
F4.0
sI7
F1.0
sI8
F4.0
sI9
F3.0
sI10
F1.0
sI14
I1
sasS'_knn'
p736
I5
sb.